---
triple:          'arm64-apple-darwin'
binary-path:     '/Users/pravin/sb/usaco/brpractice/22.3/lmoos2'
relocations:
  - { offsetInCU: 0x774F, offset: 0x774F, size: 0x8, addend: 0x0, symName: __ZNSt3__124__put_character_sequenceB8ue170006IcNS_11char_traitsIcEEEERNS_13basic_ostreamIT_T0_EES7_PKS4_m, symObjAddr: 0x8358, symBinAddr: 0x10000AD18, symSize: 0x1EC }
  - { offsetInCU: 0x90C8, offset: 0x90C8, size: 0x8, addend: 0x0, symName: __ZNSt3__1eqB8ue170006IcNS_11char_traitsIcEENS_9allocatorIcEEEEbRKNS_12basic_stringIT_T0_T1_EEPKS6_, symObjAddr: 0x110, symBinAddr: 0x100002AD0, symSize: 0xAC }
  - { offsetInCU: 0x92FD, offset: 0x92FD, size: 0x8, addend: 0x0, symName: __ZNSt3__1eqB8ue170006INS_9allocatorIcEEEEbRKNS_12basic_stringIcNS_11char_traitsIcEET_EES9_, symObjAddr: 0xE80, symBinAddr: 0x100003840, symSize: 0x148 }
  - { offsetInCU: 0x9370, offset: 0x9370, size: 0x8, addend: 0x0, symName: __ZNSt3__1rsB8ue170006IcNS_11char_traitsIcEENS_9allocatorIcEEEERNS_13basic_istreamIT_T0_EES9_RNS_12basic_stringIS6_S7_T1_EE, symObjAddr: 0x13C4, symBinAddr: 0x100003D84, symSize: 0x31C }
  - { offsetInCU: 0x943F, offset: 0x943F, size: 0x8, addend: 0x0, symName: __ZNSt3__1lsB8ue170006INS_11char_traitsIcEEEERNS_13basic_ostreamIcT_EES6_PKc, symObjAddr: 0x16E0, symBinAddr: 0x1000040A0, symSize: 0x48 }
  - { offsetInCU: 0x9485, offset: 0x9485, size: 0x8, addend: 0x0, symName: __ZNSt3__1neB8ue170006ERKNS_16__deque_iteratorINS_12basic_stringIcNS_11char_traitsIcEENS_9allocatorIcEEEEPS6_RS6_PS7_lLl170EEESC_, symObjAddr: 0x1CE0, symBinAddr: 0x1000046A0, symSize: 0x34 }
  - { offsetInCU: 0x94C2, offset: 0x94C2, size: 0x8, addend: 0x0, symName: __ZNSt3__1eqB8ue170006ERKNS_16__deque_iteratorINS_12basic_stringIcNS_11char_traitsIcEENS_9allocatorIcEEEEPS6_RS6_PS7_lLl170EEESC_, symObjAddr: 0x2040, symBinAddr: 0x100004A00, symSize: 0x30 }
  - { offsetInCU: 0x94FF, offset: 0x94FF, size: 0x8, addend: 0x0, symName: __ZNSt3__112__to_addressB8ue170006INS_12basic_stringIcNS_11char_traitsIcEENS_9allocatorIcEEEEEEPT_S8_, symObjAddr: 0x26FC, symBinAddr: 0x1000050BC, symSize: 0x14 }
  - { offsetInCU: 0x9534, offset: 0x9534, size: 0x8, addend: 0x0, symName: __ZNSt3__119__libcpp_deallocateB8ue170006EPvmm, symObjAddr: 0x286C, symBinAddr: 0x10000522C, symSize: 0x30 }
  - { offsetInCU: 0x957C, offset: 0x957C, size: 0x8, addend: 0x0, symName: __ZNSt3__127__do_deallocate_handle_sizeB8ue170006IJEEEvPvmDpT_, symObjAddr: 0x289C, symBinAddr: 0x10000525C, symSize: 0x28 }
  - { offsetInCU: 0x95BA, offset: 0x95BA, size: 0x8, addend: 0x0, symName: __ZNSt3__124__libcpp_operator_deleteB8ue170006IJPvEEEvDpT_, symObjAddr: 0x28C4, symBinAddr: 0x100005284, symSize: 0x24 }
  - { offsetInCU: 0x95EF, offset: 0x95EF, size: 0x8, addend: 0x0, symName: __ZNSt3__112__to_addressB8ue170006IPNS_12basic_stringIcNS_11char_traitsIcEENS_9allocatorIcEEEEEEPT_S9_, symObjAddr: 0x2B48, symBinAddr: 0x100005508, symSize: 0x14 }
  - { offsetInCU: 0x9624, offset: 0x9624, size: 0x8, addend: 0x0, symName: __ZNSt3__118__constexpr_strlenB8ue170006EPKc, symObjAddr: 0x2E8C, symBinAddr: 0x10000584C, symSize: 0x24 }
  - { offsetInCU: 0x9650, offset: 0x9650, size: 0x8, addend: 0x0, symName: __ZNSt3__13maxB8ue170006ImEERKT_S3_S3_, symObjAddr: 0x3C4C, symBinAddr: 0x10000660C, symSize: 0x2C }
  - { offsetInCU: 0x9693, offset: 0x9693, size: 0x8, addend: 0x0, symName: __ZNSt3__13minB8ue170006ImEERKT_S3_S3_, symObjAddr: 0x3C78, symBinAddr: 0x100006638, symSize: 0x2C }
  - { offsetInCU: 0x98D7, offset: 0x98D7, size: 0x8, addend: 0x0, symName: __ZNSt3__13minB8ue170006ImNS_6__lessIvvEEEERKT_S5_S5_T0_, symObjAddr: 0x3D04, symBinAddr: 0x1000066C4, symSize: 0x54 }
  - { offsetInCU: 0x9976, offset: 0x9976, size: 0x8, addend: 0x0, symName: __ZNSt3__120__throw_length_errorB8ue170006EPKc, symObjAddr: 0x3DE4, symBinAddr: 0x1000067A4, symSize: 0x64 }
  - { offsetInCU: 0x99A0, offset: 0x99A0, size: 0x8, addend: 0x0, symName: __ZNSt3__13maxB8ue170006ImNS_6__lessIvvEEEERKT_S5_S5_T0_, symObjAddr: 0x3EC8, symBinAddr: 0x100006888, symSize: 0x54 }
  - { offsetInCU: 0x99FA, offset: 0x99FA, size: 0x8, addend: 0x0, symName: __ZNSt3__119__allocate_at_leastB8ue170006INS_9allocatorINS_12basic_stringIcNS_11char_traitsIcEENS1_IcEEEEEEEENS_19__allocation_resultINS_16allocator_traitsIT_E7pointerEEERSA_m, symObjAddr: 0x4038, symBinAddr: 0x1000069F8, symSize: 0x40 }
  - { offsetInCU: 0x9A3D, offset: 0x9A3D, size: 0x8, addend: 0x0, symName: __ZNSt3__117__libcpp_allocateB8ue170006Emm, symObjAddr: 0x41C0, symBinAddr: 0x100006B80, symSize: 0x28 }
  - { offsetInCU: 0x9A7A, offset: 0x9A7A, size: 0x8, addend: 0x0, symName: __ZNSt3__121__libcpp_operator_newB8ue170006IJmEEEPvDpT_, symObjAddr: 0x41E8, symBinAddr: 0x100006BA8, symSize: 0x24 }
  - { offsetInCU: 0x9AB3, offset: 0x9AB3, size: 0x8, addend: 0x0, symName: __ZNSt3__142__uninitialized_allocator_move_if_noexceptB8ue170006INS_9allocatorINS_12basic_stringIcNS_11char_traitsIcEENS1_IcEEEEEENS_16reverse_iteratorIPS6_EESA_SA_EET2_RT_T0_T1_SB_, symObjAddr: 0x4270, symBinAddr: 0x100006C30, symSize: 0x12C }
  - { offsetInCU: 0x9B53, offset: 0x9B53, size: 0x8, addend: 0x0, symName: __ZNSt3__14swapB8ue170006IPNS_12basic_stringIcNS_11char_traitsIcEENS_9allocatorIcEEEEEENS_9enable_ifIXaasr21is_move_constructibleIT_EE5valuesr18is_move_assignableIS9_EE5valueEvE4typeERS9_SC_, symObjAddr: 0x43E8, symBinAddr: 0x100006DA8, symSize: 0x3C }
  - { offsetInCU: 0x9BA4, offset: 0x9BA4, size: 0x8, addend: 0x0, symName: __ZNSt3__122__make_exception_guardB8ue170006INS_29_AllocatorDestroyRangeReverseINS_9allocatorINS_12basic_stringIcNS_11char_traitsIcEENS2_IcEEEEEENS_16reverse_iteratorIPS7_EEEEEENS_28__exception_guard_exceptionsIT_EESE_, symObjAddr: 0x44EC, symBinAddr: 0x100006EAC, symSize: 0x4C }
  - { offsetInCU: 0x9BDA, offset: 0x9BDA, size: 0x8, addend: 0x0, symName: __ZNSt3__1neB8ue170006IPNS_12basic_stringIcNS_11char_traitsIcEENS_9allocatorIcEEEES7_EEbRKNS_16reverse_iteratorIT_EERKNS8_IT0_EE, symObjAddr: 0x457C, symBinAddr: 0x100006F3C, symSize: 0x48 }
  - { offsetInCU: 0x9C26, offset: 0x9C26, size: 0x8, addend: 0x0, symName: __ZNSt3__112__to_addressB8ue170006INS_16reverse_iteratorIPNS_12basic_stringIcNS_11char_traitsIcEENS_9allocatorIcEEEEEEvEEu7__decayIDTclsr19__to_address_helperIT_EE6__callclsr3stdE7declvalIRKSA_EEEEESC_, symObjAddr: 0x45C4, symBinAddr: 0x100006F84, symSize: 0x24 }
  - { offsetInCU: 0x9C85, offset: 0x9C85, size: 0x8, addend: 0x0, symName: __ZNSt3__119__allocator_destroyB8ue170006INS_9allocatorINS_12basic_stringIcNS_11char_traitsIcEENS1_IcEEEEEENS_16reverse_iteratorINS8_IPS6_EEEESB_EEvRT_T0_T1_, symObjAddr: 0x4874, symBinAddr: 0x100007234, symSize: 0x70 }
  - { offsetInCU: 0x9CEA, offset: 0x9CEA, size: 0x8, addend: 0x0, symName: __ZNSt3__1neB8ue170006INS_16reverse_iteratorIPNS_12basic_stringIcNS_11char_traitsIcEENS_9allocatorIcEEEEEES9_EEbRKNS1_IT_EERKNS1_IT0_EE, symObjAddr: 0x4920, symBinAddr: 0x1000072E0, symSize: 0x60 }
  - { offsetInCU: 0x9D36, offset: 0x9D36, size: 0x8, addend: 0x0, symName: __ZNSt3__112__to_addressB8ue170006INS_16reverse_iteratorINS1_IPNS_12basic_stringIcNS_11char_traitsIcEENS_9allocatorIcEEEEEEEEvEEu7__decayIDTclsr19__to_address_helperIT_EE6__callclsr3stdE7declvalIRKSB_EEEEESD_, symObjAddr: 0x4980, symBinAddr: 0x100007340, symSize: 0x24 }
  - { offsetInCU: 0xA13A, offset: 0xA13A, size: 0x8, addend: 0x0, symName: __ZNSt3__14swapB8ue170006IPPNS_12basic_stringIcNS_11char_traitsIcEENS_9allocatorIcEEEEEENS_9enable_ifIXaasr21is_move_constructibleIT_EE5valuesr18is_move_assignableISA_EE5valueEvE4typeERSA_SD_, symObjAddr: 0x62AC, symBinAddr: 0x100008C6C, symSize: 0x3C }
  - { offsetInCU: 0xA18B, offset: 0xA18B, size: 0x8, addend: 0x0, symName: __ZNSt3__14moveB8ue170006IPPNS_12basic_stringIcNS_11char_traitsIcEENS_9allocatorIcEEEES8_EET0_T_SA_S9_, symObjAddr: 0x6390, symBinAddr: 0x100008D50, symSize: 0x40 }
  - { offsetInCU: 0xA201, offset: 0xA201, size: 0x8, addend: 0x0, symName: __ZNSt3__16__moveB8ue170006INS_17_ClassicAlgPolicyEPPNS_12basic_stringIcNS_11char_traitsIcEENS_9allocatorIcEEEES9_S9_EENS_4pairIT0_T2_EESB_T1_SC_, symObjAddr: 0x6498, symBinAddr: 0x100008E58, symSize: 0x44 }
  - { offsetInCU: 0xA26D, offset: 0xA26D, size: 0x8, addend: 0x0, symName: __ZNSt3__123__dispatch_copy_or_moveB8ue170006INS_17_ClassicAlgPolicyENS_11__move_loopIS1_EENS_14__move_trivialEPPNS_12basic_stringIcNS_11char_traitsIcEENS_9allocatorIcEEEESC_SC_EENS_4pairIT2_T4_EESE_T3_SF_, symObjAddr: 0x64DC, symBinAddr: 0x100008E9C, symSize: 0x44 }
  - { offsetInCU: 0xA2EB, offset: 0xA2EB, size: 0x8, addend: 0x0, symName: __ZNSt3__121__unwrap_and_dispatchB8ue170006INS_10__overloadINS_11__move_loopINS_17_ClassicAlgPolicyEEENS_14__move_trivialEEEPPNS_12basic_stringIcNS_11char_traitsIcEENS_9allocatorIcEEEESE_SE_Li0EEENS_4pairIT0_T2_EESG_T1_SH_, symObjAddr: 0x6520, symBinAddr: 0x100008EE0, symSize: 0xB4 }
  - { offsetInCU: 0xA379, offset: 0xA379, size: 0x8, addend: 0x0, symName: __ZNSt3__114__unwrap_rangeB8ue170006IPPNS_12basic_stringIcNS_11char_traitsIcEENS_9allocatorIcEEEES8_EENS_4pairIT0_SA_EET_SC_, symObjAddr: 0x65D4, symBinAddr: 0x100008F94, symSize: 0x60 }
  - { offsetInCU: 0xA53D, offset: 0xA53D, size: 0x8, addend: 0x0, symName: __ZNSt3__113__unwrap_iterB8ue170006IPPNS_12basic_stringIcNS_11char_traitsIcEENS_9allocatorIcEEEENS_18__unwrap_iter_implIS8_Lb1EEELi0EEEDTclsrT0_8__unwrapclsr3stdE7declvalIT_EEEESC_, symObjAddr: 0x667C, symBinAddr: 0x10000903C, symSize: 0x24 }
  - { offsetInCU: 0xA581, offset: 0xA581, size: 0x8, addend: 0x0, symName: __ZNSt3__19make_pairB8ue170006IPPNS_12basic_stringIcNS_11char_traitsIcEENS_9allocatorIcEEEES8_EENS_4pairINS_18__unwrap_ref_decayIT_E4typeENSA_IT0_E4typeEEEOSB_OSE_, symObjAddr: 0x66A0, symBinAddr: 0x100009060, symSize: 0x38 }
  - { offsetInCU: 0xA5D0, offset: 0xA5D0, size: 0x8, addend: 0x0, symName: __ZNSt3__114__rewrap_rangeB8ue170006IPPNS_12basic_stringIcNS_11char_traitsIcEENS_9allocatorIcEEEES8_EET_S9_T0_, symObjAddr: 0x66D8, symBinAddr: 0x100009098, symSize: 0x2C }
  - { offsetInCU: 0xA61C, offset: 0xA61C, size: 0x8, addend: 0x0, symName: __ZNSt3__113__rewrap_iterB8ue170006IPPNS_12basic_stringIcNS_11char_traitsIcEENS_9allocatorIcEEEES8_NS_18__unwrap_iter_implIS8_Lb1EEEEET_SB_T0_, symObjAddr: 0x6704, symBinAddr: 0x1000090C4, symSize: 0x3C }
  - { offsetInCU: 0xA671, offset: 0xA671, size: 0x8, addend: 0x0, symName: __ZNSt3__119__copy_trivial_implB8ue170006IPNS_12basic_stringIcNS_11char_traitsIcEENS_9allocatorIcEEEES7_EENS_4pairIPT_PT0_EESA_SA_SC_, symObjAddr: 0x6740, symBinAddr: 0x100009100, symSize: 0x80 }
  - { offsetInCU: 0xA6D9, offset: 0xA6D9, size: 0x8, addend: 0x0, symName: __ZNSt3__119__constexpr_memmoveB8ue170006IPNS_12basic_stringIcNS_11char_traitsIcEENS_9allocatorIcEEEES7_Li0EEEPT_S9_PT0_NS_15__element_countE, symObjAddr: 0x67C0, symBinAddr: 0x100009180, symSize: 0x64 }
  - { offsetInCU: 0xA747, offset: 0xA747, size: 0x8, addend: 0x0, symName: __ZNSt3__19make_pairB8ue170006IRPPNS_12basic_stringIcNS_11char_traitsIcEENS_9allocatorIcEEEES8_EENS_4pairINS_18__unwrap_ref_decayIT_E4typeENSB_IT0_E4typeEEEOSC_OSF_, symObjAddr: 0x6824, symBinAddr: 0x1000091E4, symSize: 0x38 }
  - { offsetInCU: 0xA7E9, offset: 0xA7E9, size: 0x8, addend: 0x0, symName: __ZNSt3__18distanceB8ue170006INS_13move_iteratorIPPNS_12basic_stringIcNS_11char_traitsIcEENS_9allocatorIcEEEEEEEENS_15iterator_traitsIT_E15difference_typeESC_SC_, symObjAddr: 0x6A8C, symBinAddr: 0x10000944C, symSize: 0x3C }
  - { offsetInCU: 0xA82C, offset: 0xA82C, size: 0x8, addend: 0x0, symName: __ZNSt3__110__distanceB8ue170006INS_13move_iteratorIPPNS_12basic_stringIcNS_11char_traitsIcEENS_9allocatorIcEEEEEEEENS_15iterator_traitsIT_E15difference_typeESC_SC_NS_26random_access_iterator_tagE, symObjAddr: 0x6C90, symBinAddr: 0x100009650, symSize: 0x30 }
  - { offsetInCU: 0xA879, offset: 0xA879, size: 0x8, addend: 0x0, symName: __ZNSt3__1miB8ue170006IPPNS_12basic_stringIcNS_11char_traitsIcEENS_9allocatorIcEEEES8_EEDTmicldtfp_4baseEcldtfp0_4baseEERKNS_13move_iteratorIT_EERKNSA_IT0_EE, symObjAddr: 0x6CC0, symBinAddr: 0x100009680, symSize: 0x48 }
  - { offsetInCU: 0xA8C8, offset: 0xA8C8, size: 0x8, addend: 0x0, symName: __ZNSt3__113move_backwardB8ue170006IPPNS_12basic_stringIcNS_11char_traitsIcEENS_9allocatorIcEEEES8_EET0_T_SA_S9_, symObjAddr: 0x6D68, symBinAddr: 0x100009728, symSize: 0x40 }
  - { offsetInCU: 0xA922, offset: 0xA922, size: 0x8, addend: 0x0, symName: __ZNSt3__115__move_backwardB8ue170006INS_17_ClassicAlgPolicyEPPNS_12basic_stringIcNS_11char_traitsIcEENS_9allocatorIcEEEES9_S9_EENS_4pairIT0_T2_EESB_T1_SC_, symObjAddr: 0x6DA8, symBinAddr: 0x100009768, symSize: 0x44 }
  - { offsetInCU: 0xA98E, offset: 0xA98E, size: 0x8, addend: 0x0, symName: __ZNSt3__123__dispatch_copy_or_moveB8ue170006INS_17_ClassicAlgPolicyENS_20__move_backward_loopIS1_EENS_23__move_backward_trivialEPPNS_12basic_stringIcNS_11char_traitsIcEENS_9allocatorIcEEEESC_SC_EENS_4pairIT2_T4_EESE_T3_SF_, symObjAddr: 0x6DEC, symBinAddr: 0x1000097AC, symSize: 0x44 }
  - { offsetInCU: 0xAA0C, offset: 0xAA0C, size: 0x8, addend: 0x0, symName: __ZNSt3__121__unwrap_and_dispatchB8ue170006INS_10__overloadINS_20__move_backward_loopINS_17_ClassicAlgPolicyEEENS_23__move_backward_trivialEEEPPNS_12basic_stringIcNS_11char_traitsIcEENS_9allocatorIcEEEESE_SE_Li0EEENS_4pairIT0_T2_EESG_T1_SH_, symObjAddr: 0x6E30, symBinAddr: 0x1000097F0, symSize: 0xB4 }
  - { offsetInCU: 0xAAE0, offset: 0xAAE0, size: 0x8, addend: 0x0, symName: __ZNSt3__128__copy_backward_trivial_implB8ue170006IPNS_12basic_stringIcNS_11char_traitsIcEENS_9allocatorIcEEEES7_EENS_4pairIPT_PT0_EESA_SA_SC_, symObjAddr: 0x6F2C, symBinAddr: 0x1000098EC, symSize: 0x90 }
  - { offsetInCU: 0xAB48, offset: 0xAB48, size: 0x8, addend: 0x0, symName: __ZNSt3__19make_pairB8ue170006IRPPNS_12basic_stringIcNS_11char_traitsIcEENS_9allocatorIcEEEES9_EENS_4pairINS_18__unwrap_ref_decayIT_E4typeENSB_IT0_E4typeEEEOSC_OSF_, symObjAddr: 0x6FBC, symBinAddr: 0x10000997C, symSize: 0x38 }
  - { offsetInCU: 0xAB97, offset: 0xAB97, size: 0x8, addend: 0x0, symName: __ZNSt3__119__allocate_at_leastB8ue170006INS_9allocatorIPNS_12basic_stringIcNS_11char_traitsIcEENS1_IcEEEEEEEENS_19__allocation_resultINS_16allocator_traitsIT_E7pointerEEERSB_m, symObjAddr: 0x7174, symBinAddr: 0x100009B34, symSize: 0x40 }
  - { offsetInCU: 0xABDA, offset: 0xABDA, size: 0x8, addend: 0x0, symName: __ZNSt3__112__to_addressB8ue170006IKcEEPT_S3_, symObjAddr: 0x7BD4, symBinAddr: 0x10000A594, symSize: 0x14 }
  - { offsetInCU: 0xB1D8, offset: 0xB1D8, size: 0x8, addend: 0x0, symName: __ZNSt3__19use_facetB8ue170006INS_5ctypeIcEEEERKT_RKNS_6localeE, symObjAddr: 0x7DF8, symBinAddr: 0x10000A7B8, symSize: 0x2C }
  - { offsetInCU: 0xB7EB, offset: 0xB7EB, size: 0x8, addend: 0x0, symName: __ZNSt3__116__pad_and_outputB8ue170006IcNS_11char_traitsIcEEEENS_19ostreambuf_iteratorIT_T0_EES6_PKS4_S8_S8_RNS_8ios_baseES4_, symObjAddr: 0x8560, symBinAddr: 0x10000AF20, symSize: 0x240 }
  - { offsetInCU: 0xBBDD, offset: 0xBBDD, size: 0x8, addend: 0x0, symName: __ZSt28__throw_bad_array_new_lengthB8ue170006v, symObjAddr: 0x418C, symBinAddr: 0x100006B4C, symSize: 0x34 }
  - { offsetInCU: 0xC223, offset: 0xC223, size: 0x8, addend: 0x0, symName: __ZNSt3__16vectorINS_12basic_stringIcNS_11char_traitsIcEENS_9allocatorIcEEEENS4_IS6_EEE26__swap_out_circular_bufferERNS_14__split_bufferIS6_RS7_EE, symObjAddr: 0x3A94, symBinAddr: 0x100006454, symSize: 0x110 }
  - { offsetInCU: 0xE9EB, offset: 0xE9EB, size: 0x8, addend: 0x0, symName: __Z4evalNSt3__112basic_stringIcNS_11char_traitsIcEENS_9allocatorIcEEEES5_c, symObjAddr: 0x0, symBinAddr: 0x1000029C0, symSize: 0x110 }
  - { offsetInCU: 0xEA3B, offset: 0xEA3B, size: 0x8, addend: 0x0, symName: __ZNSt3__112basic_stringIcNS_11char_traitsIcEENS_9allocatorIcEEEC1B8ue170006ILi0EEEPKc, symObjAddr: 0x1BC, symBinAddr: 0x100002B7C, symSize: 0x34 }
  - { offsetInCU: 0xEA78, offset: 0xEA78, size: 0x8, addend: 0x0, symName: __Z14evaluateVectorRNSt3__16vectorINS_12basic_stringIcNS_11char_traitsIcEENS_9allocatorIcEEEENS4_IS6_EEEE, symObjAddr: 0x1F0, symBinAddr: 0x100002BB0, symSize: 0x234 }
  - { offsetInCU: 0xEAFD, offset: 0xEAFD, size: 0x8, addend: 0x0, symName: __ZNSt3__112basic_stringIcNS_11char_traitsIcEENS_9allocatorIcEEEC1B8ue170006Ev, symObjAddr: 0x424, symBinAddr: 0x100002DE4, symSize: 0x2C }
  - { offsetInCU: 0xEB26, offset: 0xEB26, size: 0x8, addend: 0x0, symName: __ZNSt3__16vectorINS_12basic_stringIcNS_11char_traitsIcEENS_9allocatorIcEEEENS4_IS6_EEEC1B8ue170006Ev, symObjAddr: 0x450, symBinAddr: 0x100002E10, symSize: 0x2C }
  - { offsetInCU: 0xEB4F, offset: 0xEB4F, size: 0x8, addend: 0x0, symName: __ZNKSt3__16vectorINS_12basic_stringIcNS_11char_traitsIcEENS_9allocatorIcEEEENS4_IS6_EEE4sizeB8ue170006Ev, symObjAddr: 0x47C, symBinAddr: 0x100002E3C, symSize: 0x28 }
  - { offsetInCU: 0xEB74, offset: 0xEB74, size: 0x8, addend: 0x0, symName: __ZNSt3__16vectorINS_12basic_stringIcNS_11char_traitsIcEENS_9allocatorIcEEEENS4_IS6_EEE5frontB8ue170006Ev, symObjAddr: 0x4A4, symBinAddr: 0x100002E64, symSize: 0x18 }
  - { offsetInCU: 0xEB98, offset: 0xEB98, size: 0x8, addend: 0x0, symName: __ZNSt3__16vectorINS_12basic_stringIcNS_11char_traitsIcEENS_9allocatorIcEEEENS4_IS6_EEE8pop_backEv, symObjAddr: 0x4BC, symBinAddr: 0x100002E7C, symSize: 0x2C }
  - { offsetInCU: 0xEBBF, offset: 0xEBBF, size: 0x8, addend: 0x0, symName: __ZNSt3__16vectorINS_12basic_stringIcNS_11char_traitsIcEENS_9allocatorIcEEEENS4_IS6_EEEixB8ue170006Em, symObjAddr: 0x4E8, symBinAddr: 0x100002EA8, symSize: 0x2C }
  - { offsetInCU: 0xEBF4, offset: 0xEBF4, size: 0x8, addend: 0x0, symName: __ZNSt3__16vectorINS_12basic_stringIcNS_11char_traitsIcEENS_9allocatorIcEEEENS4_IS6_EEE9push_backB8ue170006EOS6_, symObjAddr: 0x514, symBinAddr: 0x100002ED4, symSize: 0x6C }
  - { offsetInCU: 0xEC2A, offset: 0xEC2A, size: 0x8, addend: 0x0, symName: __ZNSt3__16vectorINS_12basic_stringIcNS_11char_traitsIcEENS_9allocatorIcEEEENS4_IS6_EEED1B8ue170006Ev, symObjAddr: 0x580, symBinAddr: 0x100002F40, symSize: 0x2C }
  - { offsetInCU: 0xEC52, offset: 0xEC52, size: 0x8, addend: 0x0, symName: __Z13evaluateStackRNSt3__15stackINS_12basic_stringIcNS_11char_traitsIcEENS_9allocatorIcEEEENS_5dequeIS6_NS4_IS6_EEEEEE, symObjAddr: 0x5AC, symBinAddr: 0x100002F6C, symSize: 0x4B8 }
  - { offsetInCU: 0xED05, offset: 0xED05, size: 0x8, addend: 0x0, symName: __ZNKSt3__15stackINS_12basic_stringIcNS_11char_traitsIcEENS_9allocatorIcEEEENS_5dequeIS6_NS4_IS6_EEEEE4sizeB8ue170006Ev, symObjAddr: 0xA64, symBinAddr: 0x100003424, symSize: 0x24 }
  - { offsetInCU: 0xED2A, offset: 0xED2A, size: 0x8, addend: 0x0, symName: __ZNSt3__15stackINS_12basic_stringIcNS_11char_traitsIcEENS_9allocatorIcEEEENS_5dequeIS6_NS4_IS6_EEEEE3topB8ue170006Ev, symObjAddr: 0xA88, symBinAddr: 0x100003448, symSize: 0x24 }
  - { offsetInCU: 0xED4F, offset: 0xED4F, size: 0x8, addend: 0x0, symName: __ZNSt3__15stackINS_12basic_stringIcNS_11char_traitsIcEENS_9allocatorIcEEEENS_5dequeIS6_NS4_IS6_EEEEE3popB8ue170006Ev, symObjAddr: 0xAAC, symBinAddr: 0x10000346C, symSize: 0x24 }
  - { offsetInCU: 0xED74, offset: 0xED74, size: 0x8, addend: 0x0, symName: __ZNSt3__15stackINS_12basic_stringIcNS_11char_traitsIcEENS_9allocatorIcEEEENS_5dequeIS6_NS4_IS6_EEEEE4pushB8ue170006EOS6_, symObjAddr: 0xAD0, symBinAddr: 0x100003490, symSize: 0x2C }
  - { offsetInCU: 0xEDA7, offset: 0xEDA7, size: 0x8, addend: 0x0, symName: __Z14evaluateResultPNSt3__112basic_stringIcNS_11char_traitsIcEENS_9allocatorIcEEEEiiS5_i, symObjAddr: 0xAFC, symBinAddr: 0x1000034BC, symSize: 0x32C }
  - { offsetInCU: 0xEE76, offset: 0xEE76, size: 0x8, addend: 0x0, symName: __ZNSt3__15stackINS_12basic_stringIcNS_11char_traitsIcEENS_9allocatorIcEEEENS_5dequeIS6_NS4_IS6_EEEEEC1B8ue170006Ev, symObjAddr: 0xE28, symBinAddr: 0x1000037E8, symSize: 0x2C }
  - { offsetInCU: 0xEE9F, offset: 0xEE9F, size: 0x8, addend: 0x0, symName: __ZNSt3__15stackINS_12basic_stringIcNS_11char_traitsIcEENS_9allocatorIcEEEENS_5dequeIS6_NS4_IS6_EEEEE4pushB8ue170006ERKS6_, symObjAddr: 0xE54, symBinAddr: 0x100003814, symSize: 0x2C }
  - { offsetInCU: 0xEED3, offset: 0xEED3, size: 0x8, addend: 0x0, symName: __ZNSt3__15stackINS_12basic_stringIcNS_11char_traitsIcEENS_9allocatorIcEEEENS_5dequeIS6_NS4_IS6_EEEEED1Ev, symObjAddr: 0xFC8, symBinAddr: 0x100003988, symSize: 0x2C }
  - { offsetInCU: 0xEEFE, offset: 0xEEFE, size: 0x8, addend: 0x0, symName: _main, symObjAddr: 0xFF4, symBinAddr: 0x1000039B4, symSize: 0x3D0 }
  - { offsetInCU: 0xEFC0, offset: 0xEFC0, size: 0x8, addend: 0x0, symName: __ZNSt3__15stackINS_12basic_stringIcNS_11char_traitsIcEENS_9allocatorIcEEEENS_5dequeIS6_NS4_IS6_EEEEED2Ev, symObjAddr: 0x1728, symBinAddr: 0x1000040E8, symSize: 0x2C }
  - { offsetInCU: 0xEFEB, offset: 0xEFEB, size: 0x8, addend: 0x0, symName: __ZNSt3__15dequeINS_12basic_stringIcNS_11char_traitsIcEENS_9allocatorIcEEEENS4_IS6_EEED1B8ue170006Ev, symObjAddr: 0x1754, symBinAddr: 0x100004114, symSize: 0x2C }
  - { offsetInCU: 0xF014, offset: 0xF014, size: 0x8, addend: 0x0, symName: __ZNSt3__15dequeINS_12basic_stringIcNS_11char_traitsIcEENS_9allocatorIcEEEENS4_IS6_EEED2B8ue170006Ev, symObjAddr: 0x1780, symBinAddr: 0x100004140, symSize: 0xA4 }
  - { offsetInCU: 0xF069, offset: 0xF069, size: 0x8, addend: 0x0, symName: __ZNSt3__15dequeINS_12basic_stringIcNS_11char_traitsIcEENS_9allocatorIcEEEENS4_IS6_EEE5clearEv, symObjAddr: 0x1824, symBinAddr: 0x1000041E4, symSize: 0x194 }
  - { offsetInCU: 0xF0C3, offset: 0xF0C3, size: 0x8, addend: 0x0, symName: __ZNKSt3__15dequeINS_12basic_stringIcNS_11char_traitsIcEENS_9allocatorIcEEEENS4_IS6_EEE17__annotate_deleteB8ue170006Ev, symObjAddr: 0x19B8, symBinAddr: 0x100004378, symSize: 0xEC }
  - { offsetInCU: 0xF106, offset: 0xF106, size: 0x8, addend: 0x0, symName: __ZNSt3__114__split_bufferIPNS_12basic_stringIcNS_11char_traitsIcEENS_9allocatorIcEEEENS4_IS7_EEE5beginB8ue170006Ev, symObjAddr: 0x1AA4, symBinAddr: 0x100004464, symSize: 0x18 }
  - { offsetInCU: 0xF12B, offset: 0xF12B, size: 0x8, addend: 0x0, symName: __ZNSt3__114__split_bufferIPNS_12basic_stringIcNS_11char_traitsIcEENS_9allocatorIcEEEENS4_IS7_EEE3endB8ue170006Ev, symObjAddr: 0x1ABC, symBinAddr: 0x10000447C, symSize: 0x18 }
  - { offsetInCU: 0xF150, offset: 0xF150, size: 0x8, addend: 0x0, symName: __ZNSt3__116allocator_traitsINS_9allocatorINS_12basic_stringIcNS_11char_traitsIcEENS1_IcEEEEEEE10deallocateB8ue170006ERS7_PS6_m, symObjAddr: 0x1AD4, symBinAddr: 0x100004494, symSize: 0x34 }
  - { offsetInCU: 0xF192, offset: 0xF192, size: 0x8, addend: 0x0, symName: __ZNSt3__15dequeINS_12basic_stringIcNS_11char_traitsIcEENS_9allocatorIcEEEENS4_IS6_EEE7__allocB8ue170006Ev, symObjAddr: 0x1B08, symBinAddr: 0x1000044C8, symSize: 0x28 }
  - { offsetInCU: 0xF1B7, offset: 0xF1B7, size: 0x8, addend: 0x0, symName: __ZNSt3__114__split_bufferIPNS_12basic_stringIcNS_11char_traitsIcEENS_9allocatorIcEEEENS4_IS7_EEED1Ev, symObjAddr: 0x1B30, symBinAddr: 0x1000044F0, symSize: 0x2C }
  - { offsetInCU: 0xF1E2, offset: 0xF1E2, size: 0x8, addend: 0x0, symName: __ZNSt3__15dequeINS_12basic_stringIcNS_11char_traitsIcEENS_9allocatorIcEEEENS4_IS6_EEE5beginB8ue170006Ev, symObjAddr: 0x1B5C, symBinAddr: 0x10000451C, symSize: 0xC0 }
  - { offsetInCU: 0xF216, offset: 0xF216, size: 0x8, addend: 0x0, symName: __ZNSt3__15dequeINS_12basic_stringIcNS_11char_traitsIcEENS_9allocatorIcEEEENS4_IS6_EEE3endB8ue170006Ev, symObjAddr: 0x1C1C, symBinAddr: 0x1000045DC, symSize: 0xC4 }
  - { offsetInCU: 0xF259, offset: 0xF259, size: 0x8, addend: 0x0, symName: __ZNSt3__116allocator_traitsINS_9allocatorINS_12basic_stringIcNS_11char_traitsIcEENS1_IcEEEEEEE7destroyB8ue170006IS6_vEEvRS7_PT_, symObjAddr: 0x1D20, symBinAddr: 0x1000046E0, symSize: 0x2C }
  - { offsetInCU: 0xF296, offset: 0xF296, size: 0x8, addend: 0x0, symName: __ZNKSt3__116__deque_iteratorINS_12basic_stringIcNS_11char_traitsIcEENS_9allocatorIcEEEEPS6_RS6_PS7_lLl170EEdeB8ue170006Ev, symObjAddr: 0x1D4C, symBinAddr: 0x10000470C, symSize: 0x18 }
  - { offsetInCU: 0xF2BB, offset: 0xF2BB, size: 0x8, addend: 0x0, symName: __ZNSt3__116__deque_iteratorINS_12basic_stringIcNS_11char_traitsIcEENS_9allocatorIcEEEEPS6_RS6_PS7_lLl170EEppB8ue170006Ev, symObjAddr: 0x1D64, symBinAddr: 0x100004724, symSize: 0x70 }
  - { offsetInCU: 0xF2E0, offset: 0xF2E0, size: 0x8, addend: 0x0, symName: __ZNSt3__15dequeINS_12basic_stringIcNS_11char_traitsIcEENS_9allocatorIcEEEENS4_IS6_EEE6__sizeB8ue170006Ev, symObjAddr: 0x1DD4, symBinAddr: 0x100004794, symSize: 0x28 }
  - { offsetInCU: 0xF305, offset: 0xF305, size: 0x8, addend: 0x0, symName: __ZNKSt3__114__split_bufferIPNS_12basic_stringIcNS_11char_traitsIcEENS_9allocatorIcEEEENS4_IS7_EEE4sizeB8ue170006Ev, symObjAddr: 0x1DFC, symBinAddr: 0x1000047BC, symSize: 0x28 }
  - { offsetInCU: 0xF32A, offset: 0xF32A, size: 0x8, addend: 0x0, symName: __ZNSt3__114__split_bufferIPNS_12basic_stringIcNS_11char_traitsIcEENS_9allocatorIcEEEENS4_IS7_EEE5frontB8ue170006Ev, symObjAddr: 0x1E24, symBinAddr: 0x1000047E4, symSize: 0x18 }
  - { offsetInCU: 0xF34F, offset: 0xF34F, size: 0x8, addend: 0x0, symName: __ZNSt3__114__split_bufferIPNS_12basic_stringIcNS_11char_traitsIcEENS_9allocatorIcEEEENS4_IS7_EEE9pop_frontB8ue170006Ev, symObjAddr: 0x1E3C, symBinAddr: 0x1000047FC, symSize: 0x2C }
  - { offsetInCU: 0xF374, offset: 0xF374, size: 0x8, addend: 0x0, symName: __ZNKSt3__15dequeINS_12basic_stringIcNS_11char_traitsIcEENS_9allocatorIcEEEENS4_IS6_EEE14__annotate_newB8ue170006Em, symObjAddr: 0x1E68, symBinAddr: 0x100004828, symSize: 0xC0 }
  - { offsetInCU: 0xF3A8, offset: 0xF3A8, size: 0x8, addend: 0x0, symName: __ZNKSt3__114__split_bufferIPNS_12basic_stringIcNS_11char_traitsIcEENS_9allocatorIcEEEENS4_IS7_EEE5emptyB8ue170006Ev, symObjAddr: 0x1F28, symBinAddr: 0x1000048E8, symSize: 0x28 }
  - { offsetInCU: 0xF3CD, offset: 0xF3CD, size: 0x8, addend: 0x0, symName: __ZNSt3__116__deque_iteratorINS_12basic_stringIcNS_11char_traitsIcEENS_9allocatorIcEEEEPS6_RS6_PS7_lLl170EEC1B8ue170006ES9_S7_, symObjAddr: 0x1F50, symBinAddr: 0x100004910, symSize: 0x3C }
  - { offsetInCU: 0xF414, offset: 0xF414, size: 0x8, addend: 0x0, symName: __ZNSt3__116__deque_iteratorINS_12basic_stringIcNS_11char_traitsIcEENS_9allocatorIcEEEEPS6_RS6_PS7_lLl170EEC2B8ue170006ES9_S7_, symObjAddr: 0x1F8C, symBinAddr: 0x10000494C, symSize: 0x2C }
  - { offsetInCU: 0xF45B, offset: 0xF45B, size: 0x8, addend: 0x0, symName: __ZNKSt3__15dequeINS_12basic_stringIcNS_11char_traitsIcEENS_9allocatorIcEEEENS4_IS6_EEE4sizeB8ue170006Ev, symObjAddr: 0x1FB8, symBinAddr: 0x100004978, symSize: 0x28 }
  - { offsetInCU: 0xF480, offset: 0xF480, size: 0x8, addend: 0x0, symName: __ZNKSt3__15dequeINS_12basic_stringIcNS_11char_traitsIcEENS_9allocatorIcEEEENS4_IS6_EEE6__sizeB8ue170006Ev, symObjAddr: 0x1FE0, symBinAddr: 0x1000049A0, symSize: 0x28 }
  - { offsetInCU: 0xF4A5, offset: 0xF4A5, size: 0x8, addend: 0x0, symName: __ZNKSt3__117__compressed_pairImNS_9allocatorINS_12basic_stringIcNS_11char_traitsIcEENS1_IcEEEEEEE5firstB8ue170006Ev, symObjAddr: 0x2008, symBinAddr: 0x1000049C8, symSize: 0x24 }
  - { offsetInCU: 0xF4CA, offset: 0xF4CA, size: 0x8, addend: 0x0, symName: __ZNKSt3__122__compressed_pair_elemImLi0ELb0EE5__getB8ue170006Ev, symObjAddr: 0x202C, symBinAddr: 0x1000049EC, symSize: 0x14 }
  - { offsetInCU: 0xF4EF, offset: 0xF4EF, size: 0x8, addend: 0x0, symName: __ZNSt3__19allocatorINS_12basic_stringIcNS_11char_traitsIcEENS0_IcEEEEE7destroyB8ue170006EPS5_, symObjAddr: 0x2070, symBinAddr: 0x100004A30, symSize: 0x28 }
  - { offsetInCU: 0xF522, offset: 0xF522, size: 0x8, addend: 0x0, symName: __ZNSt3__117__compressed_pairImNS_9allocatorINS_12basic_stringIcNS_11char_traitsIcEENS1_IcEEEEEEE5firstB8ue170006Ev, symObjAddr: 0x2098, symBinAddr: 0x100004A58, symSize: 0x24 }
  - { offsetInCU: 0xF547, offset: 0xF547, size: 0x8, addend: 0x0, symName: __ZNSt3__122__compressed_pair_elemImLi0ELb0EE5__getB8ue170006Ev, symObjAddr: 0x20BC, symBinAddr: 0x100004A7C, symSize: 0x14 }
  - { offsetInCU: 0xF56C, offset: 0xF56C, size: 0x8, addend: 0x0, symName: __ZNSt3__114__split_bufferIPNS_12basic_stringIcNS_11char_traitsIcEENS_9allocatorIcEEEENS4_IS7_EEE19__destruct_at_beginB8ue170006EPS7_, symObjAddr: 0x20D0, symBinAddr: 0x100004A90, symSize: 0x2C }
  - { offsetInCU: 0xF59F, offset: 0xF59F, size: 0x8, addend: 0x0, symName: __ZNSt3__114__split_bufferIPNS_12basic_stringIcNS_11char_traitsIcEENS_9allocatorIcEEEENS4_IS7_EEE19__destruct_at_beginEPS7_NS_17integral_constantIbLb1EEE, symObjAddr: 0x20FC, symBinAddr: 0x100004ABC, symSize: 0x20 }
  - { offsetInCU: 0xF5DE, offset: 0xF5DE, size: 0x8, addend: 0x0, symName: __ZNKSt3__15dequeINS_12basic_stringIcNS_11char_traitsIcEENS_9allocatorIcEEEENS4_IS6_EEE18__annotate_from_toB8ue170006EmmNS8_22__asan_annotation_typeENS8_23__asan_annotation_placeE, symObjAddr: 0x211C, symBinAddr: 0x100004ADC, symSize: 0x598 }
  - { offsetInCU: 0xF79B, offset: 0xF79B, size: 0x8, addend: 0x0, symName: __ZNKSt3__114__split_bufferIPNS_12basic_stringIcNS_11char_traitsIcEENS_9allocatorIcEEEENS4_IS7_EEE5beginB8ue170006Ev, symObjAddr: 0x26B4, symBinAddr: 0x100005074, symSize: 0x18 }
  - { offsetInCU: 0xF7C0, offset: 0xF7C0, size: 0x8, addend: 0x0, symName: __ZNKSt3__15dequeINS_12basic_stringIcNS_11char_traitsIcEENS_9allocatorIcEEEENS4_IS6_EEE5emptyB8ue170006Ev, symObjAddr: 0x26CC, symBinAddr: 0x10000508C, symSize: 0x30 }
  - { offsetInCU: 0xF7E5, offset: 0xF7E5, size: 0x8, addend: 0x0, symName: __ZNKSt3__15dequeINS_12basic_stringIcNS_11char_traitsIcEENS_9allocatorIcEEEENS4_IS6_EEE44__annotate_double_ended_contiguous_containerB8ue170006EPKvSA_SA_SA_SA_SA_, symObjAddr: 0x2710, symBinAddr: 0x1000050D0, symSize: 0x28 }
  - { offsetInCU: 0xF852, offset: 0xF852, size: 0x8, addend: 0x0, symName: __ZNKSt3__15dequeINS_12basic_stringIcNS_11char_traitsIcEENS_9allocatorIcEEEENS4_IS6_EEE22__annotate_whole_blockB8ue170006EmNS8_22__asan_annotation_typeE, symObjAddr: 0x2738, symBinAddr: 0x1000050F8, symSize: 0xAC }
  - { offsetInCU: 0xF8C2, offset: 0xF8C2, size: 0x8, addend: 0x0, symName: __ZNKSt3__15dequeINS_12basic_stringIcNS_11char_traitsIcEENS_9allocatorIcEEEENS4_IS6_EEE23__annotate_poison_blockB8ue170006EPKvSA_, symObjAddr: 0x27E4, symBinAddr: 0x1000051A4, symSize: 0x44 }
  - { offsetInCU: 0xF905, offset: 0xF905, size: 0x8, addend: 0x0, symName: __ZNSt3__19allocatorINS_12basic_stringIcNS_11char_traitsIcEENS0_IcEEEEE10deallocateB8ue170006EPS5_m, symObjAddr: 0x2828, symBinAddr: 0x1000051E8, symSize: 0x44 }
  - { offsetInCU: 0xF946, offset: 0xF946, size: 0x8, addend: 0x0, symName: __ZNSt3__117__compressed_pairImNS_9allocatorINS_12basic_stringIcNS_11char_traitsIcEENS1_IcEEEEEEE6secondB8ue170006Ev, symObjAddr: 0x28E8, symBinAddr: 0x1000052A8, symSize: 0x24 }
  - { offsetInCU: 0xF96B, offset: 0xF96B, size: 0x8, addend: 0x0, symName: __ZNSt3__122__compressed_pair_elemINS_9allocatorINS_12basic_stringIcNS_11char_traitsIcEENS1_IcEEEEEELi1ELb1EE5__getB8ue170006Ev, symObjAddr: 0x290C, symBinAddr: 0x1000052CC, symSize: 0x14 }
  - { offsetInCU: 0xF990, offset: 0xF990, size: 0x8, addend: 0x0, symName: __ZNSt3__114__split_bufferIPNS_12basic_stringIcNS_11char_traitsIcEENS_9allocatorIcEEEENS4_IS7_EEED2Ev, symObjAddr: 0x2920, symBinAddr: 0x1000052E0, symSize: 0x8C }
  - { offsetInCU: 0xF9BB, offset: 0xF9BB, size: 0x8, addend: 0x0, symName: __ZNSt3__114__split_bufferIPNS_12basic_stringIcNS_11char_traitsIcEENS_9allocatorIcEEEENS4_IS7_EEE5clearB8ue170006Ev, symObjAddr: 0x29AC, symBinAddr: 0x10000536C, symSize: 0x28 }
  - { offsetInCU: 0xF9E0, offset: 0xF9E0, size: 0x8, addend: 0x0, symName: __ZNSt3__116allocator_traitsINS_9allocatorIPNS_12basic_stringIcNS_11char_traitsIcEENS1_IcEEEEEEE10deallocateB8ue170006ERS8_PS7_m, symObjAddr: 0x29D4, symBinAddr: 0x100005394, symSize: 0x34 }
  - { offsetInCU: 0xFA22, offset: 0xFA22, size: 0x8, addend: 0x0, symName: __ZNSt3__114__split_bufferIPNS_12basic_stringIcNS_11char_traitsIcEENS_9allocatorIcEEEENS4_IS7_EEE7__allocB8ue170006Ev, symObjAddr: 0x2A08, symBinAddr: 0x1000053C8, symSize: 0x28 }
  - { offsetInCU: 0xFA47, offset: 0xFA47, size: 0x8, addend: 0x0, symName: __ZNKSt3__114__split_bufferIPNS_12basic_stringIcNS_11char_traitsIcEENS_9allocatorIcEEEENS4_IS7_EEE8capacityB8ue170006Ev, symObjAddr: 0x2A30, symBinAddr: 0x1000053F0, symSize: 0x40 }
  - { offsetInCU: 0xFA6C, offset: 0xFA6C, size: 0x8, addend: 0x0, symName: __ZNSt3__114__split_bufferIPNS_12basic_stringIcNS_11char_traitsIcEENS_9allocatorIcEEEENS4_IS7_EEE17__destruct_at_endB8ue170006EPS7_, symObjAddr: 0x2A70, symBinAddr: 0x100005430, symSize: 0x2C }
  - { offsetInCU: 0xFA9E, offset: 0xFA9E, size: 0x8, addend: 0x0, symName: __ZNSt3__114__split_bufferIPNS_12basic_stringIcNS_11char_traitsIcEENS_9allocatorIcEEEENS4_IS7_EEE17__destruct_at_endB8ue170006EPS7_NS_17integral_constantIbLb0EEE, symObjAddr: 0x2A9C, symBinAddr: 0x10000545C, symSize: 0x80 }
  - { offsetInCU: 0xFADD, offset: 0xFADD, size: 0x8, addend: 0x0, symName: __ZNSt3__116allocator_traitsINS_9allocatorIPNS_12basic_stringIcNS_11char_traitsIcEENS1_IcEEEEEEE7destroyB8ue170006IS7_vEEvRS8_PT_, symObjAddr: 0x2B1C, symBinAddr: 0x1000054DC, symSize: 0x2C }
  - { offsetInCU: 0xFB1A, offset: 0xFB1A, size: 0x8, addend: 0x0, symName: __ZNSt3__19allocatorIPNS_12basic_stringIcNS_11char_traitsIcEENS0_IcEEEEE7destroyB8ue170006EPS6_, symObjAddr: 0x2B5C, symBinAddr: 0x10000551C, symSize: 0x14 }
  - { offsetInCU: 0xFB4D, offset: 0xFB4D, size: 0x8, addend: 0x0, symName: __ZNSt3__19allocatorIPNS_12basic_stringIcNS_11char_traitsIcEENS0_IcEEEEE10deallocateB8ue170006EPS6_m, symObjAddr: 0x2B70, symBinAddr: 0x100005530, symSize: 0x40 }
  - { offsetInCU: 0xFB8E, offset: 0xFB8E, size: 0x8, addend: 0x0, symName: __ZNSt3__117__compressed_pairIPPNS_12basic_stringIcNS_11char_traitsIcEENS_9allocatorIcEEEENS4_IS7_EEE6secondB8ue170006Ev, symObjAddr: 0x2BB0, symBinAddr: 0x100005570, symSize: 0x24 }
  - { offsetInCU: 0xFBB3, offset: 0xFBB3, size: 0x8, addend: 0x0, symName: __ZNSt3__122__compressed_pair_elemINS_9allocatorIPNS_12basic_stringIcNS_11char_traitsIcEENS1_IcEEEEEELi1ELb1EE5__getB8ue170006Ev, symObjAddr: 0x2BD4, symBinAddr: 0x100005594, symSize: 0x14 }
  - { offsetInCU: 0xFBD8, offset: 0xFBD8, size: 0x8, addend: 0x0, symName: __ZNKSt3__114__split_bufferIPNS_12basic_stringIcNS_11char_traitsIcEENS_9allocatorIcEEEENS4_IS7_EEE9__end_capB8ue170006Ev, symObjAddr: 0x2BE8, symBinAddr: 0x1000055A8, symSize: 0x28 }
  - { offsetInCU: 0xFBFD, offset: 0xFBFD, size: 0x8, addend: 0x0, symName: __ZNKSt3__117__compressed_pairIPPNS_12basic_stringIcNS_11char_traitsIcEENS_9allocatorIcEEEENS4_IS7_EEE5firstB8ue170006Ev, symObjAddr: 0x2C10, symBinAddr: 0x1000055D0, symSize: 0x24 }
  - { offsetInCU: 0xFC22, offset: 0xFC22, size: 0x8, addend: 0x0, symName: __ZNKSt3__122__compressed_pair_elemIPPNS_12basic_stringIcNS_11char_traitsIcEENS_9allocatorIcEEEELi0ELb0EE5__getB8ue170006Ev, symObjAddr: 0x2C34, symBinAddr: 0x1000055F4, symSize: 0x14 }
  - { offsetInCU: 0xFC47, offset: 0xFC47, size: 0x8, addend: 0x0, symName: __ZNSt3__112basic_stringIcNS_11char_traitsIcEENS_9allocatorIcEEEC2B8ue170006Ev, symObjAddr: 0x2C48, symBinAddr: 0x100005608, symSize: 0x48 }
  - { offsetInCU: 0xFC75, offset: 0xFC75, size: 0x8, addend: 0x0, symName: __ZNSt3__117__compressed_pairINS_12basic_stringIcNS_11char_traitsIcEENS_9allocatorIcEEE5__repES5_EC1B8ue170006INS_18__default_init_tagESA_EEOT_OT0_, symObjAddr: 0x2C90, symBinAddr: 0x100005650, symSize: 0x3C }
  - { offsetInCU: 0xFCCC, offset: 0xFCCC, size: 0x8, addend: 0x0, symName: __ZNSt3__112basic_stringIcNS_11char_traitsIcEENS_9allocatorIcEEE14__default_initB8ue170006Ev, symObjAddr: 0x2CCC, symBinAddr: 0x10000568C, symSize: 0x40 }
  - { offsetInCU: 0xFCF1, offset: 0xFCF1, size: 0x8, addend: 0x0, symName: __ZNSt3__117__compressed_pairINS_12basic_stringIcNS_11char_traitsIcEENS_9allocatorIcEEE5__repES5_EC2B8ue170006INS_18__default_init_tagESA_EEOT_OT0_, symObjAddr: 0x2D0C, symBinAddr: 0x1000056CC, symSize: 0x3C }
  - { offsetInCU: 0xFD48, offset: 0xFD48, size: 0x8, addend: 0x0, symName: __ZNSt3__122__compressed_pair_elemINS_12basic_stringIcNS_11char_traitsIcEENS_9allocatorIcEEE5__repELi0ELb0EEC2B8ue170006ENS_18__default_init_tagE, symObjAddr: 0x2D48, symBinAddr: 0x100005708, symSize: 0x14 }
  - { offsetInCU: 0xFD7B, offset: 0xFD7B, size: 0x8, addend: 0x0, symName: __ZNSt3__122__compressed_pair_elemINS_9allocatorIcEELi1ELb1EEC2B8ue170006ENS_18__default_init_tagE, symObjAddr: 0x2D5C, symBinAddr: 0x10000571C, symSize: 0x2C }
  - { offsetInCU: 0xFDAE, offset: 0xFDAE, size: 0x8, addend: 0x0, symName: __ZNSt3__19allocatorIcEC2B8ue170006Ev, symObjAddr: 0x2D88, symBinAddr: 0x100005748, symSize: 0x2C }
  - { offsetInCU: 0xFDD7, offset: 0xFDD7, size: 0x8, addend: 0x0, symName: __ZNSt3__116__non_trivial_ifILb1ENS_9allocatorIcEEEC2B8ue170006Ev, symObjAddr: 0x2DB4, symBinAddr: 0x100005774, symSize: 0x14 }
  - { offsetInCU: 0xFE00, offset: 0xFE00, size: 0x8, addend: 0x0, symName: __ZNSt3__117__compressed_pairINS_12basic_stringIcNS_11char_traitsIcEENS_9allocatorIcEEE5__repES5_E5firstB8ue170006Ev, symObjAddr: 0x2DC8, symBinAddr: 0x100005788, symSize: 0x24 }
  - { offsetInCU: 0xFE25, offset: 0xFE25, size: 0x8, addend: 0x0, symName: __ZNSt3__122__compressed_pair_elemINS_12basic_stringIcNS_11char_traitsIcEENS_9allocatorIcEEE5__repELi0ELb0EE5__getB8ue170006Ev, symObjAddr: 0x2DEC, symBinAddr: 0x1000057AC, symSize: 0x14 }
  - { offsetInCU: 0xFE4A, offset: 0xFE4A, size: 0x8, addend: 0x0, symName: __ZNSt3__112basic_stringIcNS_11char_traitsIcEENS_9allocatorIcEEEC2B8ue170006ILi0EEEPKc, symObjAddr: 0x2E00, symBinAddr: 0x1000057C0, symSize: 0x58 }
  - { offsetInCU: 0xFE88, offset: 0xFE88, size: 0x8, addend: 0x0, symName: __ZNSt3__111char_traitsIcE6lengthB8ue170006EPKc, symObjAddr: 0x2E58, symBinAddr: 0x100005818, symSize: 0x34 }
  - { offsetInCU: 0xFEAB, offset: 0xFEAB, size: 0x8, addend: 0x0, symName: __ZNKSt3__112basic_stringIcNS_11char_traitsIcEENS_9allocatorIcEEE4sizeB8ue170006Ev, symObjAddr: 0x2EB0, symBinAddr: 0x100005870, symSize: 0x54 }
  - { offsetInCU: 0xFED0, offset: 0xFED0, size: 0x8, addend: 0x0, symName: __ZNKSt3__112basic_stringIcNS_11char_traitsIcEENS_9allocatorIcEEE9__is_longB8ue170006Ev, symObjAddr: 0x2F04, symBinAddr: 0x1000058C4, symSize: 0x38 }
  - { offsetInCU: 0xFEF5, offset: 0xFEF5, size: 0x8, addend: 0x0, symName: __ZNKSt3__112basic_stringIcNS_11char_traitsIcEENS_9allocatorIcEEE15__get_long_sizeB8ue170006Ev, symObjAddr: 0x2F3C, symBinAddr: 0x1000058FC, symSize: 0x28 }
  - { offsetInCU: 0xFF1A, offset: 0xFF1A, size: 0x8, addend: 0x0, symName: __ZNKSt3__112basic_stringIcNS_11char_traitsIcEENS_9allocatorIcEEE16__get_short_sizeB8ue170006Ev, symObjAddr: 0x2F64, symBinAddr: 0x100005924, symSize: 0x34 }
  - { offsetInCU: 0xFF3F, offset: 0xFF3F, size: 0x8, addend: 0x0, symName: __ZNKSt3__117__compressed_pairINS_12basic_stringIcNS_11char_traitsIcEENS_9allocatorIcEEE5__repES5_E5firstB8ue170006Ev, symObjAddr: 0x2F98, symBinAddr: 0x100005958, symSize: 0x24 }
  - { offsetInCU: 0xFF64, offset: 0xFF64, size: 0x8, addend: 0x0, symName: __ZNKSt3__122__compressed_pair_elemINS_12basic_stringIcNS_11char_traitsIcEENS_9allocatorIcEEE5__repELi0ELb0EE5__getB8ue170006Ev, symObjAddr: 0x2FBC, symBinAddr: 0x10000597C, symSize: 0x14 }
  - { offsetInCU: 0xFF89, offset: 0xFF89, size: 0x8, addend: 0x0, symName: __ZNSt3__16vectorINS_12basic_stringIcNS_11char_traitsIcEENS_9allocatorIcEEEENS4_IS6_EEEC2B8ue170006Ev, symObjAddr: 0x2FD0, symBinAddr: 0x100005990, symSize: 0x4C }
  - { offsetInCU: 0xFFB7, offset: 0xFFB7, size: 0x8, addend: 0x0, symName: __ZNSt3__117__compressed_pairIPNS_12basic_stringIcNS_11char_traitsIcEENS_9allocatorIcEEEENS4_IS6_EEEC1B8ue170006IDnNS_18__default_init_tagEEEOT_OT0_, symObjAddr: 0x301C, symBinAddr: 0x1000059DC, symSize: 0x3C }
  - { offsetInCU: 0x1000E, offset: 0x1000E, size: 0x8, addend: 0x0, symName: __ZNSt3__117__compressed_pairIPNS_12basic_stringIcNS_11char_traitsIcEENS_9allocatorIcEEEENS4_IS6_EEEC2B8ue170006IDnNS_18__default_init_tagEEEOT_OT0_, symObjAddr: 0x3058, symBinAddr: 0x100005A18, symSize: 0x40 }
  - { offsetInCU: 0x10065, offset: 0x10065, size: 0x8, addend: 0x0, symName: __ZNSt3__122__compressed_pair_elemIPNS_12basic_stringIcNS_11char_traitsIcEENS_9allocatorIcEEEELi0ELb0EEC2B8ue170006IDnvEEOT_, symObjAddr: 0x3098, symBinAddr: 0x100005A58, symSize: 0x1C }
  - { offsetInCU: 0x100A6, offset: 0x100A6, size: 0x8, addend: 0x0, symName: __ZNSt3__122__compressed_pair_elemINS_9allocatorINS_12basic_stringIcNS_11char_traitsIcEENS1_IcEEEEEELi1ELb1EEC2B8ue170006ENS_18__default_init_tagE, symObjAddr: 0x30B4, symBinAddr: 0x100005A74, symSize: 0x2C }
  - { offsetInCU: 0x100D9, offset: 0x100D9, size: 0x8, addend: 0x0, symName: __ZNSt3__19allocatorINS_12basic_stringIcNS_11char_traitsIcEENS0_IcEEEEEC2B8ue170006Ev, symObjAddr: 0x30E0, symBinAddr: 0x100005AA0, symSize: 0x2C }
  - { offsetInCU: 0x10102, offset: 0x10102, size: 0x8, addend: 0x0, symName: __ZNSt3__116__non_trivial_ifILb1ENS_9allocatorINS_12basic_stringIcNS_11char_traitsIcEENS1_IcEEEEEEEC2B8ue170006Ev, symObjAddr: 0x310C, symBinAddr: 0x100005ACC, symSize: 0x14 }
  - { offsetInCU: 0x1012B, offset: 0x1012B, size: 0x8, addend: 0x0, symName: __ZNSt3__16vectorINS_12basic_stringIcNS_11char_traitsIcEENS_9allocatorIcEEEENS4_IS6_EEED2B8ue170006Ev, symObjAddr: 0x3120, symBinAddr: 0x100005AE0, symSize: 0x44 }
  - { offsetInCU: 0x10154, offset: 0x10154, size: 0x8, addend: 0x0, symName: __ZNSt3__16vectorINS_12basic_stringIcNS_11char_traitsIcEENS_9allocatorIcEEEENS4_IS6_EEE16__destroy_vectorC1B8ue170006ERS8_, symObjAddr: 0x3164, symBinAddr: 0x100005B24, symSize: 0x34 }
  - { offsetInCU: 0x1018C, offset: 0x1018C, size: 0x8, addend: 0x0, symName: __ZNSt3__16vectorINS_12basic_stringIcNS_11char_traitsIcEENS_9allocatorIcEEEENS4_IS6_EEE16__destroy_vectorclB8ue170006Ev, symObjAddr: 0x3198, symBinAddr: 0x100005B58, symSize: 0x90 }
  - { offsetInCU: 0x101B1, offset: 0x101B1, size: 0x8, addend: 0x0, symName: __ZNSt3__16vectorINS_12basic_stringIcNS_11char_traitsIcEENS_9allocatorIcEEEENS4_IS6_EEE16__destroy_vectorC2B8ue170006ERS8_, symObjAddr: 0x3228, symBinAddr: 0x100005BE8, symSize: 0x20 }
  - { offsetInCU: 0x101E9, offset: 0x101E9, size: 0x8, addend: 0x0, symName: __ZNSt3__16vectorINS_12basic_stringIcNS_11char_traitsIcEENS_9allocatorIcEEEENS4_IS6_EEE7__clearB8ue170006Ev, symObjAddr: 0x3248, symBinAddr: 0x100005C08, symSize: 0x28 }
  - { offsetInCU: 0x1020E, offset: 0x1020E, size: 0x8, addend: 0x0, symName: __ZNKSt3__16vectorINS_12basic_stringIcNS_11char_traitsIcEENS_9allocatorIcEEEENS4_IS6_EEE17__annotate_deleteB8ue170006Ev, symObjAddr: 0x3270, symBinAddr: 0x100005C30, symSize: 0xD4 }
  - { offsetInCU: 0x10233, offset: 0x10233, size: 0x8, addend: 0x0, symName: __ZNSt3__16vectorINS_12basic_stringIcNS_11char_traitsIcEENS_9allocatorIcEEEENS4_IS6_EEE7__allocB8ue170006Ev, symObjAddr: 0x3344, symBinAddr: 0x100005D04, symSize: 0x28 }
  - { offsetInCU: 0x10258, offset: 0x10258, size: 0x8, addend: 0x0, symName: __ZNKSt3__16vectorINS_12basic_stringIcNS_11char_traitsIcEENS_9allocatorIcEEEENS4_IS6_EEE8capacityB8ue170006Ev, symObjAddr: 0x336C, symBinAddr: 0x100005D2C, symSize: 0x40 }
  - { offsetInCU: 0x1027D, offset: 0x1027D, size: 0x8, addend: 0x0, symName: __ZNSt3__16vectorINS_12basic_stringIcNS_11char_traitsIcEENS_9allocatorIcEEEENS4_IS6_EEE22__base_destruct_at_endB8ue170006EPS6_, symObjAddr: 0x33AC, symBinAddr: 0x100005D6C, symSize: 0x8C }
  - { offsetInCU: 0x102C0, offset: 0x102C0, size: 0x8, addend: 0x0, symName: __ZNKSt3__16vectorINS_12basic_stringIcNS_11char_traitsIcEENS_9allocatorIcEEEENS4_IS6_EEE31__annotate_contiguous_containerB8ue170006EPKvSA_SA_SA_, symObjAddr: 0x3438, symBinAddr: 0x100005DF8, symSize: 0x20 }
  - { offsetInCU: 0x10315, offset: 0x10315, size: 0x8, addend: 0x0, symName: __ZNKSt3__16vectorINS_12basic_stringIcNS_11char_traitsIcEENS_9allocatorIcEEEENS4_IS6_EEE4dataB8ue170006Ev, symObjAddr: 0x3458, symBinAddr: 0x100005E18, symSize: 0x28 }
  - { offsetInCU: 0x1033A, offset: 0x1033A, size: 0x8, addend: 0x0, symName: __ZNSt3__117__compressed_pairIPNS_12basic_stringIcNS_11char_traitsIcEENS_9allocatorIcEEEENS4_IS6_EEE6secondB8ue170006Ev, symObjAddr: 0x3480, symBinAddr: 0x100005E40, symSize: 0x24 }
  - { offsetInCU: 0x1035F, offset: 0x1035F, size: 0x8, addend: 0x0, symName: __ZNKSt3__16vectorINS_12basic_stringIcNS_11char_traitsIcEENS_9allocatorIcEEEENS4_IS6_EEE9__end_capB8ue170006Ev, symObjAddr: 0x34A4, symBinAddr: 0x100005E64, symSize: 0x28 }
  - { offsetInCU: 0x10384, offset: 0x10384, size: 0x8, addend: 0x0, symName: __ZNKSt3__117__compressed_pairIPNS_12basic_stringIcNS_11char_traitsIcEENS_9allocatorIcEEEENS4_IS6_EEE5firstB8ue170006Ev, symObjAddr: 0x34CC, symBinAddr: 0x100005E8C, symSize: 0x24 }
  - { offsetInCU: 0x103A9, offset: 0x103A9, size: 0x8, addend: 0x0, symName: __ZNKSt3__122__compressed_pair_elemIPNS_12basic_stringIcNS_11char_traitsIcEENS_9allocatorIcEEEELi0ELb0EE5__getB8ue170006Ev, symObjAddr: 0x34F0, symBinAddr: 0x100005EB0, symSize: 0x14 }
  - { offsetInCU: 0x103CE, offset: 0x103CE, size: 0x8, addend: 0x0, symName: __ZNSt3__16vectorINS_12basic_stringIcNS_11char_traitsIcEENS_9allocatorIcEEEENS4_IS6_EEE17__destruct_at_endB8ue170006EPS6_, symObjAddr: 0x3504, symBinAddr: 0x100005EC4, symSize: 0x4C }
  - { offsetInCU: 0x10411, offset: 0x10411, size: 0x8, addend: 0x0, symName: __ZNKSt3__16vectorINS_12basic_stringIcNS_11char_traitsIcEENS_9allocatorIcEEEENS4_IS6_EEE17__annotate_shrinkB8ue170006Em, symObjAddr: 0x3550, symBinAddr: 0x100005F10, symSize: 0xD0 }
  - { offsetInCU: 0x10445, offset: 0x10445, size: 0x8, addend: 0x0, symName: __ZNSt3__16vectorINS_12basic_stringIcNS_11char_traitsIcEENS_9allocatorIcEEEENS4_IS6_EEE9__end_capB8ue170006Ev, symObjAddr: 0x3620, symBinAddr: 0x100005FE0, symSize: 0x28 }
  - { offsetInCU: 0x1046F, offset: 0x1046F, size: 0x8, addend: 0x0, symName: __ZNSt3__16vectorINS_12basic_stringIcNS_11char_traitsIcEENS_9allocatorIcEEEENS4_IS6_EEE22__construct_one_at_endB8ue170006IJS6_EEEvDpOT_, symObjAddr: 0x3648, symBinAddr: 0x100006008, symSize: 0x90 }
  - { offsetInCU: 0x104BC, offset: 0x104BC, size: 0x8, addend: 0x0, symName: __ZNSt3__16vectorINS_12basic_stringIcNS_11char_traitsIcEENS_9allocatorIcEEEENS4_IS6_EEE21__push_back_slow_pathIS6_EEvOT_, symObjAddr: 0x36D8, symBinAddr: 0x100006098, symSize: 0xD8 }
  - { offsetInCU: 0x10519, offset: 0x10519, size: 0x8, addend: 0x0, symName: __ZNSt3__117__compressed_pairIPNS_12basic_stringIcNS_11char_traitsIcEENS_9allocatorIcEEEENS4_IS6_EEE5firstB8ue170006Ev, symObjAddr: 0x37B0, symBinAddr: 0x100006170, symSize: 0x24 }
  - { offsetInCU: 0x1053E, offset: 0x1053E, size: 0x8, addend: 0x0, symName: __ZNSt3__122__compressed_pair_elemIPNS_12basic_stringIcNS_11char_traitsIcEENS_9allocatorIcEEEELi0ELb0EE5__getB8ue170006Ev, symObjAddr: 0x37D4, symBinAddr: 0x100006194, symSize: 0x14 }
  - { offsetInCU: 0x1057C, offset: 0x1057C, size: 0x8, addend: 0x0, symName: __ZNSt3__16vectorINS_12basic_stringIcNS_11char_traitsIcEENS_9allocatorIcEEEENS4_IS6_EEE21_ConstructTransactionC1B8ue170006ERS8_m, symObjAddr: 0x37E8, symBinAddr: 0x1000061A8, symSize: 0x3C }
  - { offsetInCU: 0x105C3, offset: 0x105C3, size: 0x8, addend: 0x0, symName: __ZNSt3__116allocator_traitsINS_9allocatorINS_12basic_stringIcNS_11char_traitsIcEENS1_IcEEEEEEE9constructB8ue170006IS6_JS6_EvEEvRS7_PT_DpOT0_, symObjAddr: 0x3824, symBinAddr: 0x1000061E4, symSize: 0x34 }
  - { offsetInCU: 0x1061A, offset: 0x1061A, size: 0x8, addend: 0x0, symName: __ZNSt3__16vectorINS_12basic_stringIcNS_11char_traitsIcEENS_9allocatorIcEEEENS4_IS6_EEE21_ConstructTransactionD1B8ue170006Ev, symObjAddr: 0x3858, symBinAddr: 0x100006218, symSize: 0x2C }
  - { offsetInCU: 0x10643, offset: 0x10643, size: 0x8, addend: 0x0, symName: __ZNSt3__16vectorINS_12basic_stringIcNS_11char_traitsIcEENS_9allocatorIcEEEENS4_IS6_EEE21_ConstructTransactionC2B8ue170006ERS8_m, symObjAddr: 0x3884, symBinAddr: 0x100006244, symSize: 0x4C }
  - { offsetInCU: 0x1068A, offset: 0x1068A, size: 0x8, addend: 0x0, symName: __ZNSt3__19allocatorINS_12basic_stringIcNS_11char_traitsIcEENS0_IcEEEEE9constructB8ue170006IS5_JS5_EEEvPT_DpOT0_, symObjAddr: 0x38D0, symBinAddr: 0x100006290, symSize: 0x30 }
  - { offsetInCU: 0x106DF, offset: 0x106DF, size: 0x8, addend: 0x0, symName: __ZNSt3__112basic_stringIcNS_11char_traitsIcEENS_9allocatorIcEEEC1B8ue170006EOS5_, symObjAddr: 0x3900, symBinAddr: 0x1000062C0, symSize: 0x34 }
  - { offsetInCU: 0x10717, offset: 0x10717, size: 0x8, addend: 0x0, symName: __ZNSt3__112basic_stringIcNS_11char_traitsIcEENS_9allocatorIcEEEC2B8ue170006EOS5_, symObjAddr: 0x3934, symBinAddr: 0x1000062F4, symSize: 0x48 }
  - { offsetInCU: 0x1074F, offset: 0x1074F, size: 0x8, addend: 0x0, symName: __ZNSt3__16vectorINS_12basic_stringIcNS_11char_traitsIcEENS_9allocatorIcEEEENS4_IS6_EEE21_ConstructTransactionD2B8ue170006Ev, symObjAddr: 0x397C, symBinAddr: 0x10000633C, symSize: 0x20 }
  - { offsetInCU: 0x10777, offset: 0x10777, size: 0x8, addend: 0x0, symName: __ZNKSt3__16vectorINS_12basic_stringIcNS_11char_traitsIcEENS_9allocatorIcEEEENS4_IS6_EEE11__recommendB8ue170006Em, symObjAddr: 0x399C, symBinAddr: 0x10000635C, symSize: 0xB4 }
  - { offsetInCU: 0x107CB, offset: 0x107CB, size: 0x8, addend: 0x0, symName: __ZNSt3__114__split_bufferINS_12basic_stringIcNS_11char_traitsIcEENS_9allocatorIcEEEERNS4_IS6_EEEC1EmmS8_, symObjAddr: 0x3A50, symBinAddr: 0x100006410, symSize: 0x44 }
  - { offsetInCU: 0x10820, offset: 0x10820, size: 0x8, addend: 0x0, symName: __ZNSt3__114__split_bufferINS_12basic_stringIcNS_11char_traitsIcEENS_9allocatorIcEEEERNS4_IS6_EEED1Ev, symObjAddr: 0x3BA4, symBinAddr: 0x100006564, symSize: 0x2C }
  - { offsetInCU: 0x1084A, offset: 0x1084A, size: 0x8, addend: 0x0, symName: __ZNKSt3__16vectorINS_12basic_stringIcNS_11char_traitsIcEENS_9allocatorIcEEEENS4_IS6_EEE8max_sizeEv, symObjAddr: 0x3BD0, symBinAddr: 0x100006590, symSize: 0x60 }
  - { offsetInCU: 0x10871, offset: 0x10871, size: 0x8, addend: 0x0, symName: __ZNKSt3__16vectorINS_12basic_stringIcNS_11char_traitsIcEENS_9allocatorIcEEEENS4_IS6_EEE20__throw_length_errorB8ue170006Ev, symObjAddr: 0x3C30, symBinAddr: 0x1000065F0, symSize: 0x1C }
  - { offsetInCU: 0x108A0, offset: 0x108A0, size: 0x8, addend: 0x0, symName: __ZNSt3__116allocator_traitsINS_9allocatorINS_12basic_stringIcNS_11char_traitsIcEENS1_IcEEEEEEE8max_sizeB8ue170006IS7_vEEmRKS7_, symObjAddr: 0x3CA4, symBinAddr: 0x100006664, symSize: 0x24 }
  - { offsetInCU: 0x108CE, offset: 0x108CE, size: 0x8, addend: 0x0, symName: __ZNKSt3__16vectorINS_12basic_stringIcNS_11char_traitsIcEENS_9allocatorIcEEEENS4_IS6_EEE7__allocB8ue170006Ev, symObjAddr: 0x3CC8, symBinAddr: 0x100006688, symSize: 0x28 }
  - { offsetInCU: 0x108F3, offset: 0x108F3, size: 0x8, addend: 0x0, symName: __ZNSt3__114numeric_limitsIlE3maxB8ue170006Ev, symObjAddr: 0x3CF0, symBinAddr: 0x1000066B0, symSize: 0x14 }
  - { offsetInCU: 0x10911, offset: 0x10911, size: 0x8, addend: 0x0, symName: __ZNKSt3__16__lessIvvEclB8ue170006ImmEEbRKT_RKT0_, symObjAddr: 0x3D58, symBinAddr: 0x100006718, symSize: 0x34 }
  - { offsetInCU: 0x10964, offset: 0x10964, size: 0x8, addend: 0x0, symName: __ZNKSt3__19allocatorINS_12basic_stringIcNS_11char_traitsIcEENS0_IcEEEEE8max_sizeB8ue170006Ev, symObjAddr: 0x3D8C, symBinAddr: 0x10000674C, symSize: 0x18 }
  - { offsetInCU: 0x10989, offset: 0x10989, size: 0x8, addend: 0x0, symName: __ZNKSt3__117__compressed_pairIPNS_12basic_stringIcNS_11char_traitsIcEENS_9allocatorIcEEEENS4_IS6_EEE6secondB8ue170006Ev, symObjAddr: 0x3DA4, symBinAddr: 0x100006764, symSize: 0x24 }
  - { offsetInCU: 0x109AE, offset: 0x109AE, size: 0x8, addend: 0x0, symName: __ZNKSt3__122__compressed_pair_elemINS_9allocatorINS_12basic_stringIcNS_11char_traitsIcEENS1_IcEEEEEELi1ELb1EE5__getB8ue170006Ev, symObjAddr: 0x3DC8, symBinAddr: 0x100006788, symSize: 0x14 }
  - { offsetInCU: 0x109D3, offset: 0x109D3, size: 0x8, addend: 0x0, symName: __ZNSt3__123__libcpp_numeric_limitsIlLb1EE3maxB8ue170006Ev, symObjAddr: 0x3DDC, symBinAddr: 0x10000679C, symSize: 0x8 }
  - { offsetInCU: 0x109E7, offset: 0x109E7, size: 0x8, addend: 0x0, symName: __ZNSt12length_errorC1B8ue170006EPKc, symObjAddr: 0x3E48, symBinAddr: 0x100006808, symSize: 0x34 }
  - { offsetInCU: 0x10A1E, offset: 0x10A1E, size: 0x8, addend: 0x0, symName: __ZNSt12length_errorC2B8ue170006EPKc, symObjAddr: 0x3E7C, symBinAddr: 0x10000683C, symSize: 0x4C }
  - { offsetInCU: 0x10A55, offset: 0x10A55, size: 0x8, addend: 0x0, symName: __ZNSt3__114__split_bufferINS_12basic_stringIcNS_11char_traitsIcEENS_9allocatorIcEEEERNS4_IS6_EEEC2EmmS8_, symObjAddr: 0x3F1C, symBinAddr: 0x1000068DC, symSize: 0xE0 }
  - { offsetInCU: 0x10AC8, offset: 0x10AC8, size: 0x8, addend: 0x0, symName: __ZNSt3__117__compressed_pairIPNS_12basic_stringIcNS_11char_traitsIcEENS_9allocatorIcEEEERNS4_IS6_EEEC1B8ue170006IDnS9_EEOT_OT0_, symObjAddr: 0x3FFC, symBinAddr: 0x1000069BC, symSize: 0x3C }
  - { offsetInCU: 0x10B1F, offset: 0x10B1F, size: 0x8, addend: 0x0, symName: __ZNSt3__114__split_bufferINS_12basic_stringIcNS_11char_traitsIcEENS_9allocatorIcEEEERNS4_IS6_EEE7__allocB8ue170006Ev, symObjAddr: 0x4078, symBinAddr: 0x100006A38, symSize: 0x28 }
  - { offsetInCU: 0x10B44, offset: 0x10B44, size: 0x8, addend: 0x0, symName: __ZNSt3__114__split_bufferINS_12basic_stringIcNS_11char_traitsIcEENS_9allocatorIcEEEERNS4_IS6_EEE9__end_capB8ue170006Ev, symObjAddr: 0x40A0, symBinAddr: 0x100006A60, symSize: 0x28 }
  - { offsetInCU: 0x10B69, offset: 0x10B69, size: 0x8, addend: 0x0, symName: __ZNSt3__117__compressed_pairIPNS_12basic_stringIcNS_11char_traitsIcEENS_9allocatorIcEEEERNS4_IS6_EEEC2B8ue170006IDnS9_EEOT_OT0_, symObjAddr: 0x40C8, symBinAddr: 0x100006A88, symSize: 0x48 }
  - { offsetInCU: 0x10BC0, offset: 0x10BC0, size: 0x8, addend: 0x0, symName: __ZNSt3__122__compressed_pair_elemIRNS_9allocatorINS_12basic_stringIcNS_11char_traitsIcEENS1_IcEEEEEELi1ELb0EEC2B8ue170006IS8_vEEOT_, symObjAddr: 0x4110, symBinAddr: 0x100006AD0, symSize: 0x20 }
  - { offsetInCU: 0x10C01, offset: 0x10C01, size: 0x8, addend: 0x0, symName: __ZNSt3__19allocatorINS_12basic_stringIcNS_11char_traitsIcEENS0_IcEEEEE8allocateB8ue170006Em, symObjAddr: 0x4130, symBinAddr: 0x100006AF0, symSize: 0x5C }
  - { offsetInCU: 0x10C34, offset: 0x10C34, size: 0x8, addend: 0x0, symName: __ZNSt3__117__compressed_pairIPNS_12basic_stringIcNS_11char_traitsIcEENS_9allocatorIcEEEERNS4_IS6_EEE6secondB8ue170006Ev, symObjAddr: 0x420C, symBinAddr: 0x100006BCC, symSize: 0x28 }
  - { offsetInCU: 0x10C59, offset: 0x10C59, size: 0x8, addend: 0x0, symName: __ZNSt3__122__compressed_pair_elemIRNS_9allocatorINS_12basic_stringIcNS_11char_traitsIcEENS1_IcEEEEEELi1ELb0EE5__getB8ue170006Ev, symObjAddr: 0x4234, symBinAddr: 0x100006BF4, symSize: 0x18 }
  - { offsetInCU: 0x10C7E, offset: 0x10C7E, size: 0x8, addend: 0x0, symName: __ZNSt3__117__compressed_pairIPNS_12basic_stringIcNS_11char_traitsIcEENS_9allocatorIcEEEERNS4_IS6_EEE5firstB8ue170006Ev, symObjAddr: 0x424C, symBinAddr: 0x100006C0C, symSize: 0x24 }
  - { offsetInCU: 0x10CA3, offset: 0x10CA3, size: 0x8, addend: 0x0, symName: __ZNSt3__116reverse_iteratorIPNS_12basic_stringIcNS_11char_traitsIcEENS_9allocatorIcEEEEEC1B8ue170006ES7_, symObjAddr: 0x439C, symBinAddr: 0x100006D5C, symSize: 0x34 }
  - { offsetInCU: 0x10CDA, offset: 0x10CDA, size: 0x8, addend: 0x0, symName: __ZNKSt3__116reverse_iteratorIPNS_12basic_stringIcNS_11char_traitsIcEENS_9allocatorIcEEEEE4baseB8ue170006Ev, symObjAddr: 0x43D0, symBinAddr: 0x100006D90, symSize: 0x18 }
  - { offsetInCU: 0x10CFF, offset: 0x10CFF, size: 0x8, addend: 0x0, symName: __ZNKSt3__16vectorINS_12basic_stringIcNS_11char_traitsIcEENS_9allocatorIcEEEENS4_IS6_EEE14__annotate_newB8ue170006Em, symObjAddr: 0x4424, symBinAddr: 0x100006DE4, symSize: 0xC8 }
  - { offsetInCU: 0x10D33, offset: 0x10D33, size: 0x8, addend: 0x0, symName: __ZNSt3__129_AllocatorDestroyRangeReverseINS_9allocatorINS_12basic_stringIcNS_11char_traitsIcEENS1_IcEEEEEENS_16reverse_iteratorIPS6_EEEC1B8ue170006ERS7_RSA_SD_, symObjAddr: 0x4538, symBinAddr: 0x100006EF8, symSize: 0x44 }
  - { offsetInCU: 0x10D89, offset: 0x10D89, size: 0x8, addend: 0x0, symName: __ZNKSt3__116reverse_iteratorIPNS_12basic_stringIcNS_11char_traitsIcEENS_9allocatorIcEEEEEdeB8ue170006Ev, symObjAddr: 0x45E8, symBinAddr: 0x100006FA8, symSize: 0x28 }
  - { offsetInCU: 0x10DBC, offset: 0x10DBC, size: 0x8, addend: 0x0, symName: __ZNSt3__116reverse_iteratorIPNS_12basic_stringIcNS_11char_traitsIcEENS_9allocatorIcEEEEEppB8ue170006Ev, symObjAddr: 0x4610, symBinAddr: 0x100006FD0, symSize: 0x20 }
  - { offsetInCU: 0x10DE1, offset: 0x10DE1, size: 0x8, addend: 0x0, symName: __ZNSt3__128__exception_guard_exceptionsINS_29_AllocatorDestroyRangeReverseINS_9allocatorINS_12basic_stringIcNS_11char_traitsIcEENS2_IcEEEEEENS_16reverse_iteratorIPS7_EEEEE10__completeB8ue170006Ev, symObjAddr: 0x4630, symBinAddr: 0x100006FF0, symSize: 0x1C }
  - { offsetInCU: 0x10E06, offset: 0x10E06, size: 0x8, addend: 0x0, symName: __ZNSt3__128__exception_guard_exceptionsINS_29_AllocatorDestroyRangeReverseINS_9allocatorINS_12basic_stringIcNS_11char_traitsIcEENS2_IcEEEEEENS_16reverse_iteratorIPS7_EEEEED1B8ue170006Ev, symObjAddr: 0x464C, symBinAddr: 0x10000700C, symSize: 0x2C }
  - { offsetInCU: 0x10E2F, offset: 0x10E2F, size: 0x8, addend: 0x0, symName: __ZNSt3__128__exception_guard_exceptionsINS_29_AllocatorDestroyRangeReverseINS_9allocatorINS_12basic_stringIcNS_11char_traitsIcEENS2_IcEEEEEENS_16reverse_iteratorIPS7_EEEEEC1B8ue170006ESC_, symObjAddr: 0x4678, symBinAddr: 0x100007038, symSize: 0x34 }
  - { offsetInCU: 0x10E67, offset: 0x10E67, size: 0x8, addend: 0x0, symName: __ZNSt3__128__exception_guard_exceptionsINS_29_AllocatorDestroyRangeReverseINS_9allocatorINS_12basic_stringIcNS_11char_traitsIcEENS2_IcEEEEEENS_16reverse_iteratorIPS7_EEEEEC2B8ue170006ESC_, symObjAddr: 0x46AC, symBinAddr: 0x10000706C, symSize: 0x30 }
  - { offsetInCU: 0x10E9F, offset: 0x10E9F, size: 0x8, addend: 0x0, symName: __ZNSt3__129_AllocatorDestroyRangeReverseINS_9allocatorINS_12basic_stringIcNS_11char_traitsIcEENS1_IcEEEEEENS_16reverse_iteratorIPS6_EEEC2B8ue170006ERS7_RSA_SD_, symObjAddr: 0x46DC, symBinAddr: 0x10000709C, symSize: 0x38 }
  - { offsetInCU: 0x10EFA, offset: 0x10EFA, size: 0x8, addend: 0x0, symName: __ZNSt3__119__to_address_helperINS_16reverse_iteratorIPNS_12basic_stringIcNS_11char_traitsIcEENS_9allocatorIcEEEEEEvE6__callB8ue170006ERKS9_, symObjAddr: 0x4714, symBinAddr: 0x1000070D4, symSize: 0x38 }
  - { offsetInCU: 0x10F1D, offset: 0x10F1D, size: 0x8, addend: 0x0, symName: __ZNKSt3__116reverse_iteratorIPNS_12basic_stringIcNS_11char_traitsIcEENS_9allocatorIcEEEEEptB8ue170006Ev, symObjAddr: 0x474C, symBinAddr: 0x10000710C, symSize: 0x24 }
  - { offsetInCU: 0x10F42, offset: 0x10F42, size: 0x8, addend: 0x0, symName: __ZNSt3__128__exception_guard_exceptionsINS_29_AllocatorDestroyRangeReverseINS_9allocatorINS_12basic_stringIcNS_11char_traitsIcEENS2_IcEEEEEENS_16reverse_iteratorIPS7_EEEEED2B8ue170006Ev, symObjAddr: 0x4770, symBinAddr: 0x100007130, symSize: 0x50 }
  - { offsetInCU: 0x10F6B, offset: 0x10F6B, size: 0x8, addend: 0x0, symName: __ZNKSt3__129_AllocatorDestroyRangeReverseINS_9allocatorINS_12basic_stringIcNS_11char_traitsIcEENS1_IcEEEEEENS_16reverse_iteratorIPS6_EEEclB8ue170006Ev, symObjAddr: 0x47C0, symBinAddr: 0x100007180, symSize: 0xB4 }
  - { offsetInCU: 0x10F91, offset: 0x10F91, size: 0x8, addend: 0x0, symName: __ZNSt3__116reverse_iteratorINS0_IPNS_12basic_stringIcNS_11char_traitsIcEENS_9allocatorIcEEEEEEEC1B8ue170006ES8_, symObjAddr: 0x48E4, symBinAddr: 0x1000072A4, symSize: 0x3C }
  - { offsetInCU: 0x10FC8, offset: 0x10FC8, size: 0x8, addend: 0x0, symName: __ZNSt3__116reverse_iteratorINS0_IPNS_12basic_stringIcNS_11char_traitsIcEENS_9allocatorIcEEEEEEEppB8ue170006Ev, symObjAddr: 0x49A4, symBinAddr: 0x100007364, symSize: 0x30 }
  - { offsetInCU: 0x10FED, offset: 0x10FED, size: 0x8, addend: 0x0, symName: __ZNKSt3__116reverse_iteratorINS0_IPNS_12basic_stringIcNS_11char_traitsIcEENS_9allocatorIcEEEEEEE4baseB8ue170006Ev, symObjAddr: 0x49D4, symBinAddr: 0x100007394, symSize: 0x24 }
  - { offsetInCU: 0x11017, offset: 0x11017, size: 0x8, addend: 0x0, symName: __ZNSt3__119__to_address_helperINS_16reverse_iteratorINS1_IPNS_12basic_stringIcNS_11char_traitsIcEENS_9allocatorIcEEEEEEEEvE6__callB8ue170006ERKSA_, symObjAddr: 0x49F8, symBinAddr: 0x1000073B8, symSize: 0x38 }
  - { offsetInCU: 0x1103A, offset: 0x1103A, size: 0x8, addend: 0x0, symName: __ZNKSt3__116reverse_iteratorINS0_IPNS_12basic_stringIcNS_11char_traitsIcEENS_9allocatorIcEEEEEEEptB8ue170006Ev, symObjAddr: 0x4A30, symBinAddr: 0x1000073F0, symSize: 0x24 }
  - { offsetInCU: 0x1105F, offset: 0x1105F, size: 0x8, addend: 0x0, symName: __ZNKSt3__116reverse_iteratorINS0_IPNS_12basic_stringIcNS_11char_traitsIcEENS_9allocatorIcEEEEEEEdeB8ue170006Ev, symObjAddr: 0x4A54, symBinAddr: 0x100007414, symSize: 0x34 }
  - { offsetInCU: 0x11092, offset: 0x11092, size: 0x8, addend: 0x0, symName: __ZNSt3__116reverse_iteratorIPNS_12basic_stringIcNS_11char_traitsIcEENS_9allocatorIcEEEEEmmB8ue170006Ev, symObjAddr: 0x4A88, symBinAddr: 0x100007448, symSize: 0x20 }
  - { offsetInCU: 0x110B7, offset: 0x110B7, size: 0x8, addend: 0x0, symName: __ZNSt3__116reverse_iteratorINS0_IPNS_12basic_stringIcNS_11char_traitsIcEENS_9allocatorIcEEEEEEEC2B8ue170006ES8_, symObjAddr: 0x4AA8, symBinAddr: 0x100007468, symSize: 0x2C }
  - { offsetInCU: 0x110EE, offset: 0x110EE, size: 0x8, addend: 0x0, symName: __ZNSt3__116reverse_iteratorIPNS_12basic_stringIcNS_11char_traitsIcEENS_9allocatorIcEEEEEC2B8ue170006ES7_, symObjAddr: 0x4AD4, symBinAddr: 0x100007494, symSize: 0x28 }
  - { offsetInCU: 0x11125, offset: 0x11125, size: 0x8, addend: 0x0, symName: __ZNSt3__114__split_bufferINS_12basic_stringIcNS_11char_traitsIcEENS_9allocatorIcEEEERNS4_IS6_EEED2Ev, symObjAddr: 0x4AFC, symBinAddr: 0x1000074BC, symSize: 0x8C }
  - { offsetInCU: 0x11150, offset: 0x11150, size: 0x8, addend: 0x0, symName: __ZNSt3__114__split_bufferINS_12basic_stringIcNS_11char_traitsIcEENS_9allocatorIcEEEERNS4_IS6_EEE5clearB8ue170006Ev, symObjAddr: 0x4B88, symBinAddr: 0x100007548, symSize: 0x28 }
  - { offsetInCU: 0x11175, offset: 0x11175, size: 0x8, addend: 0x0, symName: __ZNKSt3__114__split_bufferINS_12basic_stringIcNS_11char_traitsIcEENS_9allocatorIcEEEERNS4_IS6_EEE8capacityB8ue170006Ev, symObjAddr: 0x4BB0, symBinAddr: 0x100007570, symSize: 0x40 }
  - { offsetInCU: 0x1119A, offset: 0x1119A, size: 0x8, addend: 0x0, symName: __ZNSt3__114__split_bufferINS_12basic_stringIcNS_11char_traitsIcEENS_9allocatorIcEEEERNS4_IS6_EEE17__destruct_at_endB8ue170006EPS6_, symObjAddr: 0x4BF0, symBinAddr: 0x1000075B0, symSize: 0x2C }
  - { offsetInCU: 0x111CC, offset: 0x111CC, size: 0x8, addend: 0x0, symName: __ZNSt3__114__split_bufferINS_12basic_stringIcNS_11char_traitsIcEENS_9allocatorIcEEEERNS4_IS6_EEE17__destruct_at_endB8ue170006EPS6_NS_17integral_constantIbLb0EEE, symObjAddr: 0x4C1C, symBinAddr: 0x1000075DC, symSize: 0x80 }
  - { offsetInCU: 0x1120B, offset: 0x1120B, size: 0x8, addend: 0x0, symName: __ZNKSt3__114__split_bufferINS_12basic_stringIcNS_11char_traitsIcEENS_9allocatorIcEEEERNS4_IS6_EEE9__end_capB8ue170006Ev, symObjAddr: 0x4C9C, symBinAddr: 0x10000765C, symSize: 0x28 }
  - { offsetInCU: 0x11230, offset: 0x11230, size: 0x8, addend: 0x0, symName: __ZNKSt3__117__compressed_pairIPNS_12basic_stringIcNS_11char_traitsIcEENS_9allocatorIcEEEERNS4_IS6_EEE5firstB8ue170006Ev, symObjAddr: 0x4CC4, symBinAddr: 0x100007684, symSize: 0x24 }
  - { offsetInCU: 0x11254, offset: 0x11254, size: 0x8, addend: 0x0, symName: __ZNSt3__15dequeINS_12basic_stringIcNS_11char_traitsIcEENS_9allocatorIcEEEENS4_IS6_EEE4backEv, symObjAddr: 0x4CE8, symBinAddr: 0x1000076A8, symSize: 0x70 }
  - { offsetInCU: 0x11289, offset: 0x11289, size: 0x8, addend: 0x0, symName: __ZNSt3__15dequeINS_12basic_stringIcNS_11char_traitsIcEENS_9allocatorIcEEEENS4_IS6_EEE8pop_backEv, symObjAddr: 0x4D58, symBinAddr: 0x100007718, symSize: 0xE8 }
  - { offsetInCU: 0x112EC, offset: 0x112EC, size: 0x8, addend: 0x0, symName: __ZNKSt3__15dequeINS_12basic_stringIcNS_11char_traitsIcEENS_9allocatorIcEEEENS4_IS6_EEE22__annotate_shrink_backB8ue170006Emm, symObjAddr: 0x4E40, symBinAddr: 0x100007800, symSize: 0x60 }
  - { offsetInCU: 0x1132F, offset: 0x1132F, size: 0x8, addend: 0x0, symName: __ZNSt3__15dequeINS_12basic_stringIcNS_11char_traitsIcEENS_9allocatorIcEEEENS4_IS6_EEE25__maybe_remove_back_spareB8ue170006Eb, symObjAddr: 0x4EA0, symBinAddr: 0x100007860, symSize: 0xE8 }
  - { offsetInCU: 0x11363, offset: 0x11363, size: 0x8, addend: 0x0, symName: __ZNKSt3__15dequeINS_12basic_stringIcNS_11char_traitsIcEENS_9allocatorIcEEEENS4_IS6_EEE19__back_spare_blocksB8ue170006Ev, symObjAddr: 0x4F88, symBinAddr: 0x100007948, symSize: 0x2C }
  - { offsetInCU: 0x11388, offset: 0x11388, size: 0x8, addend: 0x0, symName: __ZNSt3__114__split_bufferIPNS_12basic_stringIcNS_11char_traitsIcEENS_9allocatorIcEEEENS4_IS7_EEE4backB8ue170006Ev, symObjAddr: 0x4FB4, symBinAddr: 0x100007974, symSize: 0x1C }
  - { offsetInCU: 0x113AD, offset: 0x113AD, size: 0x8, addend: 0x0, symName: __ZNSt3__114__split_bufferIPNS_12basic_stringIcNS_11char_traitsIcEENS_9allocatorIcEEEENS4_IS7_EEE8pop_backB8ue170006Ev, symObjAddr: 0x4FD0, symBinAddr: 0x100007990, symSize: 0x2C }
  - { offsetInCU: 0x113D2, offset: 0x113D2, size: 0x8, addend: 0x0, symName: __ZNKSt3__15dequeINS_12basic_stringIcNS_11char_traitsIcEENS_9allocatorIcEEEENS4_IS6_EEE12__back_spareB8ue170006Ev, symObjAddr: 0x4FFC, symBinAddr: 0x1000079BC, symSize: 0x54 }
  - { offsetInCU: 0x113F7, offset: 0x113F7, size: 0x8, addend: 0x0, symName: __ZNKSt3__15dequeINS_12basic_stringIcNS_11char_traitsIcEENS_9allocatorIcEEEENS4_IS6_EEE10__capacityB8ue170006Ev, symObjAddr: 0x5050, symBinAddr: 0x100007A10, symSize: 0x64 }
  - { offsetInCU: 0x1141B, offset: 0x1141B, size: 0x8, addend: 0x0, symName: __ZNSt3__15dequeINS_12basic_stringIcNS_11char_traitsIcEENS_9allocatorIcEEEENS4_IS6_EEE9push_backEOS6_, symObjAddr: 0x50B4, symBinAddr: 0x100007A74, symSize: 0xAC }
  - { offsetInCU: 0x1145F, offset: 0x1145F, size: 0x8, addend: 0x0, symName: __ZNSt3__15dequeINS_12basic_stringIcNS_11char_traitsIcEENS_9allocatorIcEEEENS4_IS6_EEE19__add_back_capacityEv, symObjAddr: 0x5160, symBinAddr: 0x100007B20, symSize: 0x34C }
  - { offsetInCU: 0x11516, offset: 0x11516, size: 0x8, addend: 0x0, symName: __ZNKSt3__15dequeINS_12basic_stringIcNS_11char_traitsIcEENS_9allocatorIcEEEENS4_IS6_EEE24__annotate_increase_backB8ue170006Em, symObjAddr: 0x54AC, symBinAddr: 0x100007E6C, symSize: 0x7C }
  - { offsetInCU: 0x1154A, offset: 0x1154A, size: 0x8, addend: 0x0, symName: __ZNKSt3__15dequeINS_12basic_stringIcNS_11char_traitsIcEENS_9allocatorIcEEEENS4_IS6_EEE13__front_spareB8ue170006Ev, symObjAddr: 0x5528, symBinAddr: 0x100007EE8, symSize: 0x18 }
  - { offsetInCU: 0x1156E, offset: 0x1156E, size: 0x8, addend: 0x0, symName: __ZNSt3__114__split_bufferIPNS_12basic_stringIcNS_11char_traitsIcEENS_9allocatorIcEEEENS4_IS7_EEE9push_backB8ue170006ERKS7_, symObjAddr: 0x5540, symBinAddr: 0x100007F00, symSize: 0x260 }
  - { offsetInCU: 0x115E6, offset: 0x115E6, size: 0x8, addend: 0x0, symName: __ZNKSt3__114__split_bufferIPNS_12basic_stringIcNS_11char_traitsIcEENS_9allocatorIcEEEENS4_IS7_EEE12__back_spareB8ue170006Ev, symObjAddr: 0x57A0, symBinAddr: 0x100008160, symSize: 0x40 }
  - { offsetInCU: 0x1160A, offset: 0x1160A, size: 0x8, addend: 0x0, symName: __ZNSt3__114__split_bufferIPNS_12basic_stringIcNS_11char_traitsIcEENS_9allocatorIcEEEENS4_IS7_EEE9push_backEOS7_, symObjAddr: 0x57E0, symBinAddr: 0x1000081A0, symSize: 0x260 }
  - { offsetInCU: 0x11682, offset: 0x11682, size: 0x8, addend: 0x0, symName: __ZNSt3__116allocator_traitsINS_9allocatorINS_12basic_stringIcNS_11char_traitsIcEENS1_IcEEEEEEE8allocateB8ue170006ERS7_m, symObjAddr: 0x5A40, symBinAddr: 0x100008400, symSize: 0x2C }
  - { offsetInCU: 0x116B4, offset: 0x116B4, size: 0x8, addend: 0x0, symName: __ZNSt3__114__split_bufferIPNS_12basic_stringIcNS_11char_traitsIcEENS_9allocatorIcEEEENS4_IS7_EEE10push_frontEOS7_, symObjAddr: 0x5A6C, symBinAddr: 0x10000842C, symSize: 0x25C }
  - { offsetInCU: 0x1172C, offset: 0x1172C, size: 0x8, addend: 0x0, symName: __ZNSt3__114__split_bufferIPNS_12basic_stringIcNS_11char_traitsIcEENS_9allocatorIcEEEERNS4_IS7_EEEC1EmmS9_, symObjAddr: 0x5CC8, symBinAddr: 0x100008688, symSize: 0x44 }
  - { offsetInCU: 0x11786, offset: 0x11786, size: 0x8, addend: 0x0, symName: __ZNSt3__122__allocator_destructorINS_9allocatorINS_12basic_stringIcNS_11char_traitsIcEENS1_IcEEEEEEEC1B8ue170006ERS7_m, symObjAddr: 0x5D0C, symBinAddr: 0x1000086CC, symSize: 0x3C }
  - { offsetInCU: 0x11839, offset: 0x11839, size: 0x8, addend: 0x0, symName: __ZNSt3__110unique_ptrIPNS_12basic_stringIcNS_11char_traitsIcEENS_9allocatorIcEEEENS_22__allocator_destructorINS4_IS6_EEEEEC1B8ue170006ILb1EvEES7_NS_16__dependent_typeINS_27__unique_ptr_deleter_sfinaeISA_EEXT_EE20__good_rval_ref_typeE, symObjAddr: 0x5D48, symBinAddr: 0x100008708, symSize: 0x3C }
  - { offsetInCU: 0x11888, offset: 0x11888, size: 0x8, addend: 0x0, symName: __ZNSt3__114__split_bufferIPNS_12basic_stringIcNS_11char_traitsIcEENS_9allocatorIcEEEERNS4_IS7_EEE9push_backEOS7_, symObjAddr: 0x5D84, symBinAddr: 0x100008744, symSize: 0x260 }
  - { offsetInCU: 0x11900, offset: 0x11900, size: 0x8, addend: 0x0, symName: __ZNKSt3__110unique_ptrIPNS_12basic_stringIcNS_11char_traitsIcEENS_9allocatorIcEEEENS_22__allocator_destructorINS4_IS6_EEEEE3getB8ue170006Ev, symObjAddr: 0x5FE4, symBinAddr: 0x1000089A4, symSize: 0x28 }
  - { offsetInCU: 0x11925, offset: 0x11925, size: 0x8, addend: 0x0, symName: __ZNSt3__110unique_ptrIPNS_12basic_stringIcNS_11char_traitsIcEENS_9allocatorIcEEEENS_22__allocator_destructorINS4_IS6_EEEEE7releaseB8ue170006Ev, symObjAddr: 0x600C, symBinAddr: 0x1000089CC, symSize: 0x44 }
  - { offsetInCU: 0x11958, offset: 0x11958, size: 0x8, addend: 0x0, symName: __ZNSt3__114__split_bufferIPNS_12basic_stringIcNS_11char_traitsIcEENS_9allocatorIcEEEERNS4_IS7_EEE10push_frontERKS7_, symObjAddr: 0x6050, symBinAddr: 0x100008A10, symSize: 0x25C }
  - { offsetInCU: 0x119D0, offset: 0x119D0, size: 0x8, addend: 0x0, symName: __ZNSt3__114__split_bufferIPNS_12basic_stringIcNS_11char_traitsIcEENS_9allocatorIcEEEENS4_IS7_EEE9__end_capB8ue170006Ev, symObjAddr: 0x62E8, symBinAddr: 0x100008CA8, symSize: 0x28 }
  - { offsetInCU: 0x119F5, offset: 0x119F5, size: 0x8, addend: 0x0, symName: __ZNSt3__114__split_bufferIPNS_12basic_stringIcNS_11char_traitsIcEENS_9allocatorIcEEEERNS4_IS7_EEE9__end_capB8ue170006Ev, symObjAddr: 0x6310, symBinAddr: 0x100008CD0, symSize: 0x28 }
  - { offsetInCU: 0x11A1A, offset: 0x11A1A, size: 0x8, addend: 0x0, symName: __ZNSt3__110unique_ptrIPNS_12basic_stringIcNS_11char_traitsIcEENS_9allocatorIcEEEENS_22__allocator_destructorINS4_IS6_EEEEED1B8ue170006Ev, symObjAddr: 0x6338, symBinAddr: 0x100008CF8, symSize: 0x2C }
  - { offsetInCU: 0x11A43, offset: 0x11A43, size: 0x8, addend: 0x0, symName: __ZNSt3__114__split_bufferIPNS_12basic_stringIcNS_11char_traitsIcEENS_9allocatorIcEEEERNS4_IS7_EEED1Ev, symObjAddr: 0x6364, symBinAddr: 0x100008D24, symSize: 0x2C }
  - { offsetInCU: 0x11A6D, offset: 0x11A6D, size: 0x8, addend: 0x0, symName: __ZNSt3__114__split_bufferIPNS_12basic_stringIcNS_11char_traitsIcEENS_9allocatorIcEEEERNS4_IS7_EEE18__construct_at_endINS_13move_iteratorIPS7_EEEENS_9enable_ifIXsr31__has_forward_iterator_categoryIT_EE5valueEvE4typeESG_SG_, symObjAddr: 0x63D0, symBinAddr: 0x100008D90, symSize: 0x60 }
  - { offsetInCU: 0x11AB9, offset: 0x11AB9, size: 0x8, addend: 0x0, symName: __ZNSt3__113move_iteratorIPPNS_12basic_stringIcNS_11char_traitsIcEENS_9allocatorIcEEEEEC1B8ue170006ES8_, symObjAddr: 0x6430, symBinAddr: 0x100008DF0, symSize: 0x34 }
  - { offsetInCU: 0x11AF5, offset: 0x11AF5, size: 0x8, addend: 0x0, symName: __ZNSt3__116allocator_traitsINS_9allocatorIPNS_12basic_stringIcNS_11char_traitsIcEENS1_IcEEEEEEE9constructB8ue170006IS7_JRKS7_EvEEvRS8_PT_DpOT0_, symObjAddr: 0x6464, symBinAddr: 0x100008E24, symSize: 0x34 }
  - { offsetInCU: 0x11B6F, offset: 0x11B6F, size: 0x8, addend: 0x0, symName: __ZNKSt3__114__move_trivialclB8ue170006IPNS_12basic_stringIcNS_11char_traitsIcEENS_9allocatorIcEEEES8_Li0EEENS_4pairIPT_PT0_EESB_SB_SD_, symObjAddr: 0x6634, symBinAddr: 0x100008FF4, symSize: 0x48 }
  - { offsetInCU: 0x11BDB, offset: 0x11BDB, size: 0x8, addend: 0x0, symName: __ZNSt3__14pairIPPNS_12basic_stringIcNS_11char_traitsIcEENS_9allocatorIcEEEES8_EC1B8ue170006IRS8_S8_LPv0EEEOT_OT0_, symObjAddr: 0x685C, symBinAddr: 0x10000921C, symSize: 0x3C }
  - { offsetInCU: 0x11C38, offset: 0x11C38, size: 0x8, addend: 0x0, symName: __ZNSt3__14pairIPPNS_12basic_stringIcNS_11char_traitsIcEENS_9allocatorIcEEEES8_EC2B8ue170006IRS8_S8_LPv0EEEOT_OT0_, symObjAddr: 0x6898, symBinAddr: 0x100009258, symSize: 0x34 }
  - { offsetInCU: 0x11C95, offset: 0x11C95, size: 0x8, addend: 0x0, symName: __ZNSt3__118__unwrap_iter_implIPPNS_12basic_stringIcNS_11char_traitsIcEENS_9allocatorIcEEEELb1EE8__unwrapB8ue170006ES8_, symObjAddr: 0x68CC, symBinAddr: 0x10000928C, symSize: 0x24 }
  - { offsetInCU: 0x11CB8, offset: 0x11CB8, size: 0x8, addend: 0x0, symName: __ZNSt3__14pairIPPNS_12basic_stringIcNS_11char_traitsIcEENS_9allocatorIcEEEES8_EC1B8ue170006IS8_S8_LPv0EEEOT_OT0_, symObjAddr: 0x68F0, symBinAddr: 0x1000092B0, symSize: 0x3C }
  - { offsetInCU: 0x11D15, offset: 0x11D15, size: 0x8, addend: 0x0, symName: __ZNSt3__14pairIPPNS_12basic_stringIcNS_11char_traitsIcEENS_9allocatorIcEEEES8_EC2B8ue170006IS8_S8_LPv0EEEOT_OT0_, symObjAddr: 0x692C, symBinAddr: 0x1000092EC, symSize: 0x34 }
  - { offsetInCU: 0x11D72, offset: 0x11D72, size: 0x8, addend: 0x0, symName: __ZNSt3__118__unwrap_iter_implIPPNS_12basic_stringIcNS_11char_traitsIcEENS_9allocatorIcEEEELb1EE8__rewrapB8ue170006ES8_S8_, symObjAddr: 0x6960, symBinAddr: 0x100009320, symSize: 0x50 }
  - { offsetInCU: 0x11DA2, offset: 0x11DA2, size: 0x8, addend: 0x0, symName: __ZNSt3__114__split_bufferIPNS_12basic_stringIcNS_11char_traitsIcEENS_9allocatorIcEEEERNS4_IS7_EEE28__construct_at_end_with_sizeINS_13move_iteratorIPS7_EEEEvT_m, symObjAddr: 0x69B0, symBinAddr: 0x100009370, symSize: 0xDC }
  - { offsetInCU: 0x11E07, offset: 0x11E07, size: 0x8, addend: 0x0, symName: __ZNSt3__114__split_bufferIPNS_12basic_stringIcNS_11char_traitsIcEENS_9allocatorIcEEEERNS4_IS7_EEE21_ConstructTransactionC1B8ue170006EPPS7_m, symObjAddr: 0x6AC8, symBinAddr: 0x100009488, symSize: 0x3C }
  - { offsetInCU: 0x11E4C, offset: 0x11E4C, size: 0x8, addend: 0x0, symName: __ZNSt3__116allocator_traitsINS_9allocatorIPNS_12basic_stringIcNS_11char_traitsIcEENS1_IcEEEEEEE9constructB8ue170006IS7_JS7_EvEEvRS8_PT_DpOT0_, symObjAddr: 0x6B04, symBinAddr: 0x1000094C4, symSize: 0x34 }
  - { offsetInCU: 0x11EA3, offset: 0x11EA3, size: 0x8, addend: 0x0, symName: __ZNSt3__114__split_bufferIPNS_12basic_stringIcNS_11char_traitsIcEENS_9allocatorIcEEEERNS4_IS7_EEE7__allocB8ue170006Ev, symObjAddr: 0x6B38, symBinAddr: 0x1000094F8, symSize: 0x28 }
  - { offsetInCU: 0x11EC8, offset: 0x11EC8, size: 0x8, addend: 0x0, symName: __ZNKSt3__113move_iteratorIPPNS_12basic_stringIcNS_11char_traitsIcEENS_9allocatorIcEEEEEdeB8ue170006Ev, symObjAddr: 0x6B60, symBinAddr: 0x100009520, symSize: 0x18 }
  - { offsetInCU: 0x11EED, offset: 0x11EED, size: 0x8, addend: 0x0, symName: __ZNSt3__113move_iteratorIPPNS_12basic_stringIcNS_11char_traitsIcEENS_9allocatorIcEEEEEppB8ue170006Ev, symObjAddr: 0x6B78, symBinAddr: 0x100009538, symSize: 0x20 }
  - { offsetInCU: 0x11F12, offset: 0x11F12, size: 0x8, addend: 0x0, symName: __ZNSt3__114__split_bufferIPNS_12basic_stringIcNS_11char_traitsIcEENS_9allocatorIcEEEERNS4_IS7_EEE21_ConstructTransactionD1B8ue170006Ev, symObjAddr: 0x6B98, symBinAddr: 0x100009558, symSize: 0x2C }
  - { offsetInCU: 0x11F3B, offset: 0x11F3B, size: 0x8, addend: 0x0, symName: __ZNSt3__114__split_bufferIPNS_12basic_stringIcNS_11char_traitsIcEENS_9allocatorIcEEEERNS4_IS7_EEE21_ConstructTransactionC2B8ue170006EPPS7_m, symObjAddr: 0x6BC4, symBinAddr: 0x100009584, symSize: 0x44 }
  - { offsetInCU: 0x11F80, offset: 0x11F80, size: 0x8, addend: 0x0, symName: __ZNSt3__19allocatorIPNS_12basic_stringIcNS_11char_traitsIcEENS0_IcEEEEE9constructB8ue170006IS6_JS6_EEEvPT_DpOT0_, symObjAddr: 0x6C08, symBinAddr: 0x1000095C8, symSize: 0x28 }
  - { offsetInCU: 0x11FD5, offset: 0x11FD5, size: 0x8, addend: 0x0, symName: __ZNSt3__117__compressed_pairIPPNS_12basic_stringIcNS_11char_traitsIcEENS_9allocatorIcEEEERNS4_IS7_EEE6secondB8ue170006Ev, symObjAddr: 0x6C30, symBinAddr: 0x1000095F0, symSize: 0x28 }
  - { offsetInCU: 0x11FFA, offset: 0x11FFA, size: 0x8, addend: 0x0, symName: __ZNSt3__122__compressed_pair_elemIRNS_9allocatorIPNS_12basic_stringIcNS_11char_traitsIcEENS1_IcEEEEEELi1ELb0EE5__getB8ue170006Ev, symObjAddr: 0x6C58, symBinAddr: 0x100009618, symSize: 0x18 }
  - { offsetInCU: 0x1201F, offset: 0x1201F, size: 0x8, addend: 0x0, symName: __ZNSt3__114__split_bufferIPNS_12basic_stringIcNS_11char_traitsIcEENS_9allocatorIcEEEERNS4_IS7_EEE21_ConstructTransactionD2B8ue170006Ev, symObjAddr: 0x6C70, symBinAddr: 0x100009630, symSize: 0x20 }
  - { offsetInCU: 0x12048, offset: 0x12048, size: 0x8, addend: 0x0, symName: __ZNKSt3__113move_iteratorIPPNS_12basic_stringIcNS_11char_traitsIcEENS_9allocatorIcEEEEE4baseB8ue170006Ev, symObjAddr: 0x6D08, symBinAddr: 0x1000096C8, symSize: 0x18 }
  - { offsetInCU: 0x1206D, offset: 0x1206D, size: 0x8, addend: 0x0, symName: __ZNSt3__113move_iteratorIPPNS_12basic_stringIcNS_11char_traitsIcEENS_9allocatorIcEEEEEC2B8ue170006ES8_, symObjAddr: 0x6D20, symBinAddr: 0x1000096E0, symSize: 0x20 }
  - { offsetInCU: 0x120A4, offset: 0x120A4, size: 0x8, addend: 0x0, symName: __ZNSt3__19allocatorIPNS_12basic_stringIcNS_11char_traitsIcEENS0_IcEEEEE9constructB8ue170006IS6_JRKS6_EEEvPT_DpOT0_, symObjAddr: 0x6D40, symBinAddr: 0x100009700, symSize: 0x28 }
  - { offsetInCU: 0x12103, offset: 0x12103, size: 0x8, addend: 0x0, symName: __ZNKSt3__123__move_backward_trivialclB8ue170006IPNS_12basic_stringIcNS_11char_traitsIcEENS_9allocatorIcEEEES8_Li0EEENS_4pairIPT_PT0_EESB_SB_SD_, symObjAddr: 0x6EE4, symBinAddr: 0x1000098A4, symSize: 0x48 }
  - { offsetInCU: 0x1216A, offset: 0x1216A, size: 0x8, addend: 0x0, symName: __ZNSt3__14pairIPPNS_12basic_stringIcNS_11char_traitsIcEENS_9allocatorIcEEEES8_EC1B8ue170006IRS8_SB_LPv0EEEOT_OT0_, symObjAddr: 0x6FF4, symBinAddr: 0x1000099B4, symSize: 0x3C }
  - { offsetInCU: 0x121C7, offset: 0x121C7, size: 0x8, addend: 0x0, symName: __ZNSt3__14pairIPPNS_12basic_stringIcNS_11char_traitsIcEENS_9allocatorIcEEEES8_EC2B8ue170006IRS8_SB_LPv0EEEOT_OT0_, symObjAddr: 0x7030, symBinAddr: 0x1000099F0, symSize: 0x34 }
  - { offsetInCU: 0x12224, offset: 0x12224, size: 0x8, addend: 0x0, symName: __ZNSt3__114__split_bufferIPNS_12basic_stringIcNS_11char_traitsIcEENS_9allocatorIcEEEERNS4_IS7_EEEC2EmmS9_, symObjAddr: 0x7064, symBinAddr: 0x100009A24, symSize: 0xD4 }
  - { offsetInCU: 0x12297, offset: 0x12297, size: 0x8, addend: 0x0, symName: __ZNSt3__117__compressed_pairIPPNS_12basic_stringIcNS_11char_traitsIcEENS_9allocatorIcEEEERNS4_IS7_EEEC1B8ue170006IDnSA_EEOT_OT0_, symObjAddr: 0x7138, symBinAddr: 0x100009AF8, symSize: 0x3C }
  - { offsetInCU: 0x122EE, offset: 0x122EE, size: 0x8, addend: 0x0, symName: __ZNSt3__117__compressed_pairIPPNS_12basic_stringIcNS_11char_traitsIcEENS_9allocatorIcEEEERNS4_IS7_EEEC2B8ue170006IDnSA_EEOT_OT0_, symObjAddr: 0x71B4, symBinAddr: 0x100009B74, symSize: 0x48 }
  - { offsetInCU: 0x12345, offset: 0x12345, size: 0x8, addend: 0x0, symName: __ZNSt3__122__compressed_pair_elemIPPNS_12basic_stringIcNS_11char_traitsIcEENS_9allocatorIcEEEELi0ELb0EEC2B8ue170006IDnvEEOT_, symObjAddr: 0x71FC, symBinAddr: 0x100009BBC, symSize: 0x1C }
  - { offsetInCU: 0x12386, offset: 0x12386, size: 0x8, addend: 0x0, symName: __ZNSt3__122__compressed_pair_elemIRNS_9allocatorIPNS_12basic_stringIcNS_11char_traitsIcEENS1_IcEEEEEELi1ELb0EEC2B8ue170006IS9_vEEOT_, symObjAddr: 0x7218, symBinAddr: 0x100009BD8, symSize: 0x20 }
  - { offsetInCU: 0x123C7, offset: 0x123C7, size: 0x8, addend: 0x0, symName: __ZNSt3__19allocatorIPNS_12basic_stringIcNS_11char_traitsIcEENS0_IcEEEEE8allocateB8ue170006Em, symObjAddr: 0x7238, symBinAddr: 0x100009BF8, symSize: 0x58 }
  - { offsetInCU: 0x12404, offset: 0x12404, size: 0x8, addend: 0x0, symName: __ZNSt3__116allocator_traitsINS_9allocatorIPNS_12basic_stringIcNS_11char_traitsIcEENS1_IcEEEEEEE8max_sizeB8ue170006IS8_vEEmRKS8_, symObjAddr: 0x7290, symBinAddr: 0x100009C50, symSize: 0x24 }
  - { offsetInCU: 0x12432, offset: 0x12432, size: 0x8, addend: 0x0, symName: __ZNKSt3__19allocatorIPNS_12basic_stringIcNS_11char_traitsIcEENS0_IcEEEEE8max_sizeB8ue170006Ev, symObjAddr: 0x72B4, symBinAddr: 0x100009C74, symSize: 0x14 }
  - { offsetInCU: 0x12457, offset: 0x12457, size: 0x8, addend: 0x0, symName: __ZNSt3__122__allocator_destructorINS_9allocatorINS_12basic_stringIcNS_11char_traitsIcEENS1_IcEEEEEEEC2B8ue170006ERS7_m, symObjAddr: 0x72C8, symBinAddr: 0x100009C88, symSize: 0x2C }
  - { offsetInCU: 0x1249C, offset: 0x1249C, size: 0x8, addend: 0x0, symName: __ZNSt3__110unique_ptrIPNS_12basic_stringIcNS_11char_traitsIcEENS_9allocatorIcEEEENS_22__allocator_destructorINS4_IS6_EEEEEC2B8ue170006ILb1EvEES7_NS_16__dependent_typeINS_27__unique_ptr_deleter_sfinaeISA_EEXT_EE20__good_rval_ref_typeE, symObjAddr: 0x72F4, symBinAddr: 0x100009CB4, symSize: 0x48 }
  - { offsetInCU: 0x124EC, offset: 0x124EC, size: 0x8, addend: 0x0, symName: __ZNSt3__117__compressed_pairIPNS_12basic_stringIcNS_11char_traitsIcEENS_9allocatorIcEEEENS_22__allocator_destructorINS4_IS6_EEEEEC1B8ue170006IRS7_SA_EEOT_OT0_, symObjAddr: 0x733C, symBinAddr: 0x100009CFC, symSize: 0x3C }
  - { offsetInCU: 0x12543, offset: 0x12543, size: 0x8, addend: 0x0, symName: __ZNSt3__117__compressed_pairIPNS_12basic_stringIcNS_11char_traitsIcEENS_9allocatorIcEEEENS_22__allocator_destructorINS4_IS6_EEEEEC2B8ue170006IRS7_SA_EEOT_OT0_, symObjAddr: 0x7378, symBinAddr: 0x100009D38, symSize: 0x48 }
  - { offsetInCU: 0x1259A, offset: 0x1259A, size: 0x8, addend: 0x0, symName: __ZNSt3__122__compressed_pair_elemIPNS_12basic_stringIcNS_11char_traitsIcEENS_9allocatorIcEEEELi0ELb0EEC2B8ue170006IRS7_vEEOT_, symObjAddr: 0x73C0, symBinAddr: 0x100009D80, symSize: 0x24 }
  - { offsetInCU: 0x125DB, offset: 0x125DB, size: 0x8, addend: 0x0, symName: __ZNSt3__122__compressed_pair_elemINS_22__allocator_destructorINS_9allocatorINS_12basic_stringIcNS_11char_traitsIcEENS2_IcEEEEEEEELi1ELb0EEC2B8ue170006IS9_vEEOT_, symObjAddr: 0x73E4, symBinAddr: 0x100009DA4, symSize: 0x24 }
  - { offsetInCU: 0x1261C, offset: 0x1261C, size: 0x8, addend: 0x0, symName: __ZNKSt3__117__compressed_pairIPNS_12basic_stringIcNS_11char_traitsIcEENS_9allocatorIcEEEENS_22__allocator_destructorINS4_IS6_EEEEE5firstB8ue170006Ev, symObjAddr: 0x7408, symBinAddr: 0x100009DC8, symSize: 0x24 }
  - { offsetInCU: 0x12641, offset: 0x12641, size: 0x8, addend: 0x0, symName: __ZNSt3__117__compressed_pairIPNS_12basic_stringIcNS_11char_traitsIcEENS_9allocatorIcEEEENS_22__allocator_destructorINS4_IS6_EEEEE5firstB8ue170006Ev, symObjAddr: 0x742C, symBinAddr: 0x100009DEC, symSize: 0x24 }
  - { offsetInCU: 0x12666, offset: 0x12666, size: 0x8, addend: 0x0, symName: __ZNSt3__117__compressed_pairIPPNS_12basic_stringIcNS_11char_traitsIcEENS_9allocatorIcEEEENS4_IS7_EEE5firstB8ue170006Ev, symObjAddr: 0x7450, symBinAddr: 0x100009E10, symSize: 0x24 }
  - { offsetInCU: 0x1268B, offset: 0x1268B, size: 0x8, addend: 0x0, symName: __ZNSt3__122__compressed_pair_elemIPPNS_12basic_stringIcNS_11char_traitsIcEENS_9allocatorIcEEEELi0ELb0EE5__getB8ue170006Ev, symObjAddr: 0x7474, symBinAddr: 0x100009E34, symSize: 0x14 }
  - { offsetInCU: 0x126B0, offset: 0x126B0, size: 0x8, addend: 0x0, symName: __ZNSt3__117__compressed_pairIPPNS_12basic_stringIcNS_11char_traitsIcEENS_9allocatorIcEEEERNS4_IS7_EEE5firstB8ue170006Ev, symObjAddr: 0x7488, symBinAddr: 0x100009E48, symSize: 0x24 }
  - { offsetInCU: 0x126D5, offset: 0x126D5, size: 0x8, addend: 0x0, symName: __ZNSt3__110unique_ptrIPNS_12basic_stringIcNS_11char_traitsIcEENS_9allocatorIcEEEENS_22__allocator_destructorINS4_IS6_EEEEED2B8ue170006Ev, symObjAddr: 0x74AC, symBinAddr: 0x100009E6C, symSize: 0x30 }
  - { offsetInCU: 0x126FE, offset: 0x126FE, size: 0x8, addend: 0x0, symName: __ZNSt3__110unique_ptrIPNS_12basic_stringIcNS_11char_traitsIcEENS_9allocatorIcEEEENS_22__allocator_destructorINS4_IS6_EEEEE5resetB8ue170006ES7_, symObjAddr: 0x74DC, symBinAddr: 0x100009E9C, symSize: 0x78 }
  - { offsetInCU: 0x12741, offset: 0x12741, size: 0x8, addend: 0x0, symName: __ZNSt3__117__compressed_pairIPNS_12basic_stringIcNS_11char_traitsIcEENS_9allocatorIcEEEENS_22__allocator_destructorINS4_IS6_EEEEE6secondB8ue170006Ev, symObjAddr: 0x7554, symBinAddr: 0x100009F14, symSize: 0x28 }
  - { offsetInCU: 0x12766, offset: 0x12766, size: 0x8, addend: 0x0, symName: __ZNSt3__122__allocator_destructorINS_9allocatorINS_12basic_stringIcNS_11char_traitsIcEENS1_IcEEEEEEEclB8ue170006EPS6_, symObjAddr: 0x757C, symBinAddr: 0x100009F3C, symSize: 0x34 }
  - { offsetInCU: 0x12799, offset: 0x12799, size: 0x8, addend: 0x0, symName: __ZNSt3__122__compressed_pair_elemINS_22__allocator_destructorINS_9allocatorINS_12basic_stringIcNS_11char_traitsIcEENS2_IcEEEEEEEELi1ELb0EE5__getB8ue170006Ev, symObjAddr: 0x75B0, symBinAddr: 0x100009F70, symSize: 0x14 }
  - { offsetInCU: 0x127BE, offset: 0x127BE, size: 0x8, addend: 0x0, symName: __ZNSt3__114__split_bufferIPNS_12basic_stringIcNS_11char_traitsIcEENS_9allocatorIcEEEERNS4_IS7_EEED2Ev, symObjAddr: 0x75C4, symBinAddr: 0x100009F84, symSize: 0x8C }
  - { offsetInCU: 0x127E9, offset: 0x127E9, size: 0x8, addend: 0x0, symName: __ZNSt3__114__split_bufferIPNS_12basic_stringIcNS_11char_traitsIcEENS_9allocatorIcEEEERNS4_IS7_EEE5clearB8ue170006Ev, symObjAddr: 0x7650, symBinAddr: 0x10000A010, symSize: 0x28 }
  - { offsetInCU: 0x1280E, offset: 0x1280E, size: 0x8, addend: 0x0, symName: __ZNKSt3__114__split_bufferIPNS_12basic_stringIcNS_11char_traitsIcEENS_9allocatorIcEEEERNS4_IS7_EEE8capacityB8ue170006Ev, symObjAddr: 0x7678, symBinAddr: 0x10000A038, symSize: 0x40 }
  - { offsetInCU: 0x12833, offset: 0x12833, size: 0x8, addend: 0x0, symName: __ZNSt3__114__split_bufferIPNS_12basic_stringIcNS_11char_traitsIcEENS_9allocatorIcEEEERNS4_IS7_EEE17__destruct_at_endB8ue170006EPS7_, symObjAddr: 0x76B8, symBinAddr: 0x10000A078, symSize: 0x2C }
  - { offsetInCU: 0x12865, offset: 0x12865, size: 0x8, addend: 0x0, symName: __ZNSt3__114__split_bufferIPNS_12basic_stringIcNS_11char_traitsIcEENS_9allocatorIcEEEERNS4_IS7_EEE17__destruct_at_endB8ue170006EPS7_NS_17integral_constantIbLb0EEE, symObjAddr: 0x76E4, symBinAddr: 0x10000A0A4, symSize: 0x80 }
  - { offsetInCU: 0x128A4, offset: 0x128A4, size: 0x8, addend: 0x0, symName: __ZNKSt3__114__split_bufferIPNS_12basic_stringIcNS_11char_traitsIcEENS_9allocatorIcEEEERNS4_IS7_EEE9__end_capB8ue170006Ev, symObjAddr: 0x7764, symBinAddr: 0x10000A124, symSize: 0x28 }
  - { offsetInCU: 0x128C9, offset: 0x128C9, size: 0x8, addend: 0x0, symName: __ZNKSt3__117__compressed_pairIPPNS_12basic_stringIcNS_11char_traitsIcEENS_9allocatorIcEEEERNS4_IS7_EEE5firstB8ue170006Ev, symObjAddr: 0x778C, symBinAddr: 0x10000A14C, symSize: 0x24 }
  - { offsetInCU: 0x128EE, offset: 0x128EE, size: 0x8, addend: 0x0, symName: __ZNSt3__15stackINS_12basic_stringIcNS_11char_traitsIcEENS_9allocatorIcEEEENS_5dequeIS6_NS4_IS6_EEEEEC2B8ue170006Ev, symObjAddr: 0x77B0, symBinAddr: 0x10000A170, symSize: 0x2C }
  - { offsetInCU: 0x12917, offset: 0x12917, size: 0x8, addend: 0x0, symName: __ZNSt3__15dequeINS_12basic_stringIcNS_11char_traitsIcEENS_9allocatorIcEEEENS4_IS6_EEEC1B8ue170006Ev, symObjAddr: 0x77DC, symBinAddr: 0x10000A19C, symSize: 0x2C }
  - { offsetInCU: 0x12940, offset: 0x12940, size: 0x8, addend: 0x0, symName: __ZNSt3__15dequeINS_12basic_stringIcNS_11char_traitsIcEENS_9allocatorIcEEEENS4_IS6_EEEC2B8ue170006Ev, symObjAddr: 0x7808, symBinAddr: 0x10000A1C8, symSize: 0x5C }
  - { offsetInCU: 0x12969, offset: 0x12969, size: 0x8, addend: 0x0, symName: __ZNSt3__114__split_bufferIPNS_12basic_stringIcNS_11char_traitsIcEENS_9allocatorIcEEEENS4_IS7_EEEC1B8ue170006Ev, symObjAddr: 0x7864, symBinAddr: 0x10000A224, symSize: 0x2C }
  - { offsetInCU: 0x12997, offset: 0x12997, size: 0x8, addend: 0x0, symName: __ZNSt3__117__compressed_pairImNS_9allocatorINS_12basic_stringIcNS_11char_traitsIcEENS1_IcEEEEEEEC1B8ue170006IiNS_18__default_init_tagEEEOT_OT0_, symObjAddr: 0x7890, symBinAddr: 0x10000A250, symSize: 0x3C }
  - { offsetInCU: 0x129EE, offset: 0x129EE, size: 0x8, addend: 0x0, symName: __ZNSt3__114__split_bufferIPNS_12basic_stringIcNS_11char_traitsIcEENS_9allocatorIcEEEENS4_IS7_EEEC2B8ue170006Ev, symObjAddr: 0x78CC, symBinAddr: 0x10000A28C, symSize: 0x50 }
  - { offsetInCU: 0x12A17, offset: 0x12A17, size: 0x8, addend: 0x0, symName: __ZNSt3__117__compressed_pairIPPNS_12basic_stringIcNS_11char_traitsIcEENS_9allocatorIcEEEENS4_IS7_EEEC1B8ue170006IDnNS_18__default_init_tagEEEOT_OT0_, symObjAddr: 0x791C, symBinAddr: 0x10000A2DC, symSize: 0x3C }
  - { offsetInCU: 0x12A6E, offset: 0x12A6E, size: 0x8, addend: 0x0, symName: __ZNSt3__117__compressed_pairIPPNS_12basic_stringIcNS_11char_traitsIcEENS_9allocatorIcEEEENS4_IS7_EEEC2B8ue170006IDnNS_18__default_init_tagEEEOT_OT0_, symObjAddr: 0x7958, symBinAddr: 0x10000A318, symSize: 0x40 }
  - { offsetInCU: 0x12AC5, offset: 0x12AC5, size: 0x8, addend: 0x0, symName: __ZNSt3__122__compressed_pair_elemINS_9allocatorIPNS_12basic_stringIcNS_11char_traitsIcEENS1_IcEEEEEELi1ELb1EEC2B8ue170006ENS_18__default_init_tagE, symObjAddr: 0x7998, symBinAddr: 0x10000A358, symSize: 0x2C }
  - { offsetInCU: 0x12AF8, offset: 0x12AF8, size: 0x8, addend: 0x0, symName: __ZNSt3__19allocatorIPNS_12basic_stringIcNS_11char_traitsIcEENS0_IcEEEEEC2B8ue170006Ev, symObjAddr: 0x79C4, symBinAddr: 0x10000A384, symSize: 0x2C }
  - { offsetInCU: 0x12B21, offset: 0x12B21, size: 0x8, addend: 0x0, symName: __ZNSt3__116__non_trivial_ifILb1ENS_9allocatorIPNS_12basic_stringIcNS_11char_traitsIcEENS1_IcEEEEEEEC2B8ue170006Ev, symObjAddr: 0x79F0, symBinAddr: 0x10000A3B0, symSize: 0x14 }
  - { offsetInCU: 0x12B4A, offset: 0x12B4A, size: 0x8, addend: 0x0, symName: __ZNSt3__117__compressed_pairImNS_9allocatorINS_12basic_stringIcNS_11char_traitsIcEENS1_IcEEEEEEEC2B8ue170006IiNS_18__default_init_tagEEEOT_OT0_, symObjAddr: 0x7A04, symBinAddr: 0x10000A3C4, symSize: 0x40 }
  - { offsetInCU: 0x12BA1, offset: 0x12BA1, size: 0x8, addend: 0x0, symName: __ZNSt3__122__compressed_pair_elemImLi0ELb0EEC2B8ue170006IivEEOT_, symObjAddr: 0x7A44, symBinAddr: 0x10000A404, symSize: 0x24 }
  - { offsetInCU: 0x12BE1, offset: 0x12BE1, size: 0x8, addend: 0x0, symName: __ZNSt3__15dequeINS_12basic_stringIcNS_11char_traitsIcEENS_9allocatorIcEEEENS4_IS6_EEE9push_backERKS6_, symObjAddr: 0x7A68, symBinAddr: 0x10000A428, symSize: 0xAC }
  - { offsetInCU: 0x12C26, offset: 0x12C26, size: 0x8, addend: 0x0, symName: __ZNSt3__116allocator_traitsINS_9allocatorINS_12basic_stringIcNS_11char_traitsIcEENS1_IcEEEEEEE9constructB8ue170006IS6_JRKS6_EvEEvRS7_PT_DpOT0_, symObjAddr: 0x7B14, symBinAddr: 0x10000A4D4, symSize: 0x34 }
  - { offsetInCU: 0x12C7D, offset: 0x12C7D, size: 0x8, addend: 0x0, symName: __ZNSt3__19allocatorINS_12basic_stringIcNS_11char_traitsIcEENS0_IcEEEEE9constructB8ue170006IS5_JRKS5_EEEvPT_DpOT0_, symObjAddr: 0x7B48, symBinAddr: 0x10000A508, symSize: 0x30 }
  - { offsetInCU: 0x12CD2, offset: 0x12CD2, size: 0x8, addend: 0x0, symName: __ZNKSt3__112basic_stringIcNS_11char_traitsIcEENS_9allocatorIcEEE4dataB8ue170006Ev, symObjAddr: 0x7B78, symBinAddr: 0x10000A538, symSize: 0x28 }
  - { offsetInCU: 0x12CF7, offset: 0x12CF7, size: 0x8, addend: 0x0, symName: __ZNSt3__111char_traitsIcE7compareB8ue170006EPKcS3_m, symObjAddr: 0x7BA0, symBinAddr: 0x10000A560, symSize: 0x34 }
  - { offsetInCU: 0x12D36, offset: 0x12D36, size: 0x8, addend: 0x0, symName: __ZNKSt3__112basic_stringIcNS_11char_traitsIcEENS_9allocatorIcEEE13__get_pointerB8ue170006Ev, symObjAddr: 0x7BE8, symBinAddr: 0x10000A5A8, symSize: 0x54 }
  - { offsetInCU: 0x12D5B, offset: 0x12D5B, size: 0x8, addend: 0x0, symName: __ZNKSt3__112basic_stringIcNS_11char_traitsIcEENS_9allocatorIcEEE18__get_long_pointerB8ue170006Ev, symObjAddr: 0x7C3C, symBinAddr: 0x10000A5FC, symSize: 0x28 }
  - { offsetInCU: 0x12D80, offset: 0x12D80, size: 0x8, addend: 0x0, symName: __ZNKSt3__112basic_stringIcNS_11char_traitsIcEENS_9allocatorIcEEE19__get_short_pointerB8ue170006Ev, symObjAddr: 0x7C64, symBinAddr: 0x10000A624, symSize: 0x28 }
  - { offsetInCU: 0x12DA5, offset: 0x12DA5, size: 0x8, addend: 0x0, symName: __ZNSt3__114pointer_traitsIPKcE10pointer_toB8ue170006ERS1_, symObjAddr: 0x7C8C, symBinAddr: 0x10000A64C, symSize: 0x14 }
  - { offsetInCU: 0x12E6A, offset: 0x12E6A, size: 0x8, addend: 0x0, symName: __ZNKSt3__113basic_istreamIcNS_11char_traitsIcEEE6sentrycvbB8ue170006Ev, symObjAddr: 0x7CA0, symBinAddr: 0x10000A660, symSize: 0x1C }
  - { offsetInCU: 0x12E8E, offset: 0x12E8E, size: 0x8, addend: 0x0, symName: __ZNSt3__112basic_stringIcNS_11char_traitsIcEENS_9allocatorIcEEE5clearB8ue170006Ev, symObjAddr: 0x7CBC, symBinAddr: 0x10000A67C, symSize: 0x78 }
  - { offsetInCU: 0x12EB5, offset: 0x12EB5, size: 0x8, addend: 0x0, symName: __ZNKSt3__18ios_base5widthB8ue170006Ev, symObjAddr: 0x7D34, symBinAddr: 0x10000A6F4, symSize: 0x18 }
  - { offsetInCU: 0x12EDC, offset: 0x12EDC, size: 0x8, addend: 0x0, symName: __ZNKSt3__112basic_stringIcNS_11char_traitsIcEENS_9allocatorIcEEE8max_sizeB8ue170006Ev, symObjAddr: 0x7D4C, symBinAddr: 0x10000A70C, symSize: 0xAC }
  - { offsetInCU: 0x12F2D, offset: 0x12F2D, size: 0x8, addend: 0x0, symName: __ZNKSt3__19basic_iosIcNS_11char_traitsIcEEE5rdbufB8ue170006Ev, symObjAddr: 0x7E24, symBinAddr: 0x10000A7E4, symSize: 0x24 }
  - { offsetInCU: 0x12F54, offset: 0x12F54, size: 0x8, addend: 0x0, symName: __ZNSt3__115basic_streambufIcNS_11char_traitsIcEEE5sgetcB8ue170006Ev, symObjAddr: 0x7E48, symBinAddr: 0x10000A808, symSize: 0x70 }
  - { offsetInCU: 0x12F79, offset: 0x12F79, size: 0x8, addend: 0x0, symName: __ZNSt3__111char_traitsIcE11eq_int_typeB8ue170006Eii, symObjAddr: 0x7EB8, symBinAddr: 0x10000A878, symSize: 0x28 }
  - { offsetInCU: 0x12FAC, offset: 0x12FAC, size: 0x8, addend: 0x0, symName: __ZNSt3__111char_traitsIcE3eofB8ue170006Ev, symObjAddr: 0x7EE0, symBinAddr: 0x10000A8A0, symSize: 0x8 }
  - { offsetInCU: 0x12FC0, offset: 0x12FC0, size: 0x8, addend: 0x0, symName: __ZNSt3__111char_traitsIcE12to_char_typeB8ue170006Ei, symObjAddr: 0x7EE8, symBinAddr: 0x10000A8A8, symSize: 0x18 }
  - { offsetInCU: 0x1300B, offset: 0x1300B, size: 0x8, addend: 0x0, symName: __ZNKSt3__15ctypeIcE2isB8ue170006Ejc, symObjAddr: 0x7F00, symBinAddr: 0x10000A8C0, symSize: 0x7C }
  - { offsetInCU: 0x1304E, offset: 0x1304E, size: 0x8, addend: 0x0, symName: __ZNSt3__115basic_streambufIcNS_11char_traitsIcEEE6sbumpcB8ue170006Ev, symObjAddr: 0x7F7C, symBinAddr: 0x10000A93C, symSize: 0x78 }
  - { offsetInCU: 0x13073, offset: 0x13073, size: 0x8, addend: 0x0, symName: __ZNSt3__18ios_base5widthB8ue170006El, symObjAddr: 0x7FF4, symBinAddr: 0x10000A9B4, symSize: 0x2C }
  - { offsetInCU: 0x130B8, offset: 0x130B8, size: 0x8, addend: 0x0, symName: __ZNSt3__18ios_base18__setstate_nothrowB8ue170006Ej, symObjAddr: 0x8020, symBinAddr: 0x10000A9E0, symSize: 0x64 }
  - { offsetInCU: 0x130EC, offset: 0x130EC, size: 0x8, addend: 0x0, symName: __ZNKSt3__19basic_iosIcNS_11char_traitsIcEEE10exceptionsB8ue170006Ev, symObjAddr: 0x8084, symBinAddr: 0x10000AA44, symSize: 0x24 }
  - { offsetInCU: 0x13111, offset: 0x13111, size: 0x8, addend: 0x0, symName: __ZNSt3__19basic_iosIcNS_11char_traitsIcEEE8setstateB8ue170006Ej, symObjAddr: 0x80A8, symBinAddr: 0x10000AA68, symSize: 0x2C }
  - { offsetInCU: 0x13145, offset: 0x13145, size: 0x8, addend: 0x0, symName: __ZNSt3__111char_traitsIcE6assignB8ue170006ERcRKc, symObjAddr: 0x80D4, symBinAddr: 0x10000AA94, symSize: 0x24 }
  - { offsetInCU: 0x13176, offset: 0x13176, size: 0x8, addend: 0x0, symName: __ZNSt3__112basic_stringIcNS_11char_traitsIcEENS_9allocatorIcEEE18__get_long_pointerB8ue170006Ev, symObjAddr: 0x80F8, symBinAddr: 0x10000AAB8, symSize: 0x28 }
  - { offsetInCU: 0x1319B, offset: 0x1319B, size: 0x8, addend: 0x0, symName: __ZNSt3__112basic_stringIcNS_11char_traitsIcEENS_9allocatorIcEEE15__set_long_sizeB8ue170006Em, symObjAddr: 0x8120, symBinAddr: 0x10000AAE0, symSize: 0x38 }
  - { offsetInCU: 0x131CF, offset: 0x131CF, size: 0x8, addend: 0x0, symName: __ZNSt3__112basic_stringIcNS_11char_traitsIcEENS_9allocatorIcEEE19__get_short_pointerB8ue170006Ev, symObjAddr: 0x8158, symBinAddr: 0x10000AB18, symSize: 0x28 }
  - { offsetInCU: 0x131F4, offset: 0x131F4, size: 0x8, addend: 0x0, symName: __ZNSt3__112basic_stringIcNS_11char_traitsIcEENS_9allocatorIcEEE16__set_short_sizeB8ue170006Em, symObjAddr: 0x8180, symBinAddr: 0x10000AB40, symSize: 0x78 }
  - { offsetInCU: 0x13228, offset: 0x13228, size: 0x8, addend: 0x0, symName: __ZNSt3__114pointer_traitsIPcE10pointer_toB8ue170006ERc, symObjAddr: 0x81F8, symBinAddr: 0x10000ABB8, symSize: 0x14 }
  - { offsetInCU: 0x13255, offset: 0x13255, size: 0x8, addend: 0x0, symName: __ZNSt3__116allocator_traitsINS_9allocatorIcEEE8max_sizeB8ue170006IS2_vEEmRKS2_, symObjAddr: 0x820C, symBinAddr: 0x10000ABCC, symSize: 0x24 }
  - { offsetInCU: 0x13283, offset: 0x13283, size: 0x8, addend: 0x0, symName: __ZNKSt3__112basic_stringIcNS_11char_traitsIcEENS_9allocatorIcEEE7__allocB8ue170006Ev, symObjAddr: 0x8230, symBinAddr: 0x10000ABF0, symSize: 0x24 }
  - { offsetInCU: 0x132A8, offset: 0x132A8, size: 0x8, addend: 0x0, symName: __ZNSt3__114numeric_limitsImE3maxB8ue170006Ev, symObjAddr: 0x8254, symBinAddr: 0x10000AC14, symSize: 0x14 }
  - { offsetInCU: 0x132BC, offset: 0x132BC, size: 0x8, addend: 0x0, symName: __ZNKSt3__19allocatorIcE8max_sizeB8ue170006Ev, symObjAddr: 0x8268, symBinAddr: 0x10000AC28, symSize: 0x14 }
  - { offsetInCU: 0x132E1, offset: 0x132E1, size: 0x8, addend: 0x0, symName: __ZNKSt3__117__compressed_pairINS_12basic_stringIcNS_11char_traitsIcEENS_9allocatorIcEEE5__repES5_E6secondB8ue170006Ev, symObjAddr: 0x827C, symBinAddr: 0x10000AC3C, symSize: 0x24 }
  - { offsetInCU: 0x13306, offset: 0x13306, size: 0x8, addend: 0x0, symName: __ZNKSt3__122__compressed_pair_elemINS_9allocatorIcEELi1ELb1EE5__getB8ue170006Ev, symObjAddr: 0x82A0, symBinAddr: 0x10000AC60, symSize: 0x14 }
  - { offsetInCU: 0x1332B, offset: 0x1332B, size: 0x8, addend: 0x0, symName: __ZNSt3__123__libcpp_numeric_limitsImLb1EE3maxB8ue170006Ev, symObjAddr: 0x82B4, symBinAddr: 0x10000AC74, symSize: 0x8 }
  - { offsetInCU: 0x1333F, offset: 0x1333F, size: 0x8, addend: 0x0, symName: __ZNKSt3__18ios_base5rdbufB8ue170006Ev, symObjAddr: 0x82BC, symBinAddr: 0x10000AC7C, symSize: 0x18 }
  - { offsetInCU: 0x13364, offset: 0x13364, size: 0x8, addend: 0x0, symName: __ZNSt3__111char_traitsIcE11to_int_typeB8ue170006Ec, symObjAddr: 0x82D4, symBinAddr: 0x10000AC94, symSize: 0x14 }
  - { offsetInCU: 0x13387, offset: 0x13387, size: 0x8, addend: 0x0, symName: __Z7isasciii, symObjAddr: 0x82E8, symBinAddr: 0x10000ACA8, symSize: 0x24 }
  - { offsetInCU: 0x133B4, offset: 0x133B4, size: 0x8, addend: 0x0, symName: __ZNKSt3__18ios_base10exceptionsB8ue170006Ev, symObjAddr: 0x830C, symBinAddr: 0x10000ACCC, symSize: 0x18 }
  - { offsetInCU: 0x133DA, offset: 0x133DA, size: 0x8, addend: 0x0, symName: __ZNSt3__18ios_base8setstateB8ue170006Ej, symObjAddr: 0x8324, symBinAddr: 0x10000ACE4, symSize: 0x34 }
  - { offsetInCU: 0x1342E, offset: 0x1342E, size: 0x8, addend: 0x0, symName: __ZNKSt3__113basic_ostreamIcNS_11char_traitsIcEEE6sentrycvbB8ue170006Ev, symObjAddr: 0x8544, symBinAddr: 0x10000AF04, symSize: 0x1C }
  - { offsetInCU: 0x13453, offset: 0x13453, size: 0x8, addend: 0x0, symName: __ZNSt3__119ostreambuf_iteratorIcNS_11char_traitsIcEEEC1B8ue170006ERNS_13basic_ostreamIcS2_EE, symObjAddr: 0x87A0, symBinAddr: 0x10000B160, symSize: 0x34 }
  - { offsetInCU: 0x1348A, offset: 0x1348A, size: 0x8, addend: 0x0, symName: __ZNKSt3__18ios_base5flagsB8ue170006Ev, symObjAddr: 0x87D4, symBinAddr: 0x10000B194, symSize: 0x18 }
  - { offsetInCU: 0x134B0, offset: 0x134B0, size: 0x8, addend: 0x0, symName: __ZNKSt3__19basic_iosIcNS_11char_traitsIcEEE4fillB8ue170006Ev, symObjAddr: 0x87EC, symBinAddr: 0x10000B1AC, symSize: 0x64 }
  - { offsetInCU: 0x134D7, offset: 0x134D7, size: 0x8, addend: 0x0, symName: __ZNKSt3__119ostreambuf_iteratorIcNS_11char_traitsIcEEE6failedB8ue170006Ev, symObjAddr: 0x8850, symBinAddr: 0x10000B210, symSize: 0x24 }
  - { offsetInCU: 0x134FC, offset: 0x134FC, size: 0x8, addend: 0x0, symName: __ZNSt3__115basic_streambufIcNS_11char_traitsIcEEE5sputnB8ue170006EPKcl, symObjAddr: 0x8874, symBinAddr: 0x10000B234, symSize: 0x3C }
  - { offsetInCU: 0x1353D, offset: 0x1353D, size: 0x8, addend: 0x0, symName: __ZNSt3__112basic_stringIcNS_11char_traitsIcEENS_9allocatorIcEEEC1B8ue170006Emc, symObjAddr: 0x88B0, symBinAddr: 0x10000B270, symSize: 0x3C }
  - { offsetInCU: 0x13584, offset: 0x13584, size: 0x8, addend: 0x0, symName: __ZNSt3__112basic_stringIcNS_11char_traitsIcEENS_9allocatorIcEEEC2B8ue170006Emc, symObjAddr: 0x88EC, symBinAddr: 0x10000B2AC, symSize: 0x4C }
  - { offsetInCU: 0x135CB, offset: 0x135CB, size: 0x8, addend: 0x0, symName: __ZNSt3__119ostreambuf_iteratorIcNS_11char_traitsIcEEEC2B8ue170006ERNS_13basic_ostreamIcS2_EE, symObjAddr: 0x8938, symBinAddr: 0x10000B2F8, symSize: 0x54 }
  - { offsetInCU: 0x13601, offset: 0x13601, size: 0x8, addend: 0x0, symName: __ZNKSt3__19basic_iosIcNS_11char_traitsIcEEE5widenB8ue170006Ec, symObjAddr: 0x898C, symBinAddr: 0x10000B34C, symSize: 0x84 }
  - { offsetInCU: 0x13637, offset: 0x13637, size: 0x8, addend: 0x0, symName: __ZNKSt3__15ctypeIcE5widenB8ue170006Ec, symObjAddr: 0x8A10, symBinAddr: 0x10000B3D0, symSize: 0x38 }
...
