---
triple:          'arm64-apple-darwin'
binary-path:     '/Users/pravin/sb/usaco/brpractice/22.3/perimeter1'
relocations:
  - { offsetInCU: 0x4D1D, offset: 0x4D1D, size: 0x8, addend: 0x0, symName: __ZNSt3__13minB8ue170006IiEERKT_S3_S3_, symObjAddr: 0x3C4, symBinAddr: 0x100002A50, symSize: 0x2C }
  - { offsetInCU: 0x599B, offset: 0x599B, size: 0x8, addend: 0x0, symName: __ZNSt3__14endlB8ue170006IcNS_11char_traitsIcEEEERNS_13basic_ostreamIT_T0_EES7_, symObjAddr: 0x41C, symBinAddr: 0x100002AA8, symSize: 0x58 }
  - { offsetInCU: 0x59DB, offset: 0x59DB, size: 0x8, addend: 0x0, symName: __ZNSt3__13minB8ue170006IiNS_6__lessIvvEEEERKT_S5_S5_T0_, symObjAddr: 0x4A0, symBinAddr: 0x100002B2C, symSize: 0x54 }
  - { offsetInCU: 0x5AAB, offset: 0x5AAB, size: 0x8, addend: 0x0, symName: __ZNSt3__122__make_exception_guardB8ue170006INS_6vectorI5PointNS_9allocatorIS2_EEE16__destroy_vectorEEENS_28__exception_guard_exceptionsIT_EES8_, symObjAddr: 0x638, symBinAddr: 0x100002CC4, symSize: 0x40 }
  - { offsetInCU: 0x5AE0, offset: 0x5AE0, size: 0x8, addend: 0x0, symName: __ZNSt3__119__allocate_at_leastB8ue170006INS_9allocatorI5PointEEEENS_19__allocation_resultINS_16allocator_traitsIT_E7pointerEEERS6_m, symObjAddr: 0xA24, symBinAddr: 0x1000030B0, symSize: 0x40 }
  - { offsetInCU: 0x5B23, offset: 0x5B23, size: 0x8, addend: 0x0, symName: __ZNSt3__13minB8ue170006ImEERKT_S3_S3_, symObjAddr: 0xB60, symBinAddr: 0x1000031EC, symSize: 0x2C }
  - { offsetInCU: 0x5D67, offset: 0x5D67, size: 0x8, addend: 0x0, symName: __ZNSt3__13minB8ue170006ImNS_6__lessIvvEEEERKT_S5_S5_T0_, symObjAddr: 0xBF8, symBinAddr: 0x100003284, symSize: 0x54 }
  - { offsetInCU: 0x5DC1, offset: 0x5DC1, size: 0x8, addend: 0x0, symName: __ZNSt3__120__throw_length_errorB8ue170006EPKc, symObjAddr: 0xCD4, symBinAddr: 0x100003360, symSize: 0x64 }
  - { offsetInCU: 0x5DEB, offset: 0x5DEB, size: 0x8, addend: 0x0, symName: __ZNSt3__117__libcpp_allocateB8ue170006Emm, symObjAddr: 0xE44, symBinAddr: 0x1000034D0, symSize: 0x28 }
  - { offsetInCU: 0x5E28, offset: 0x5E28, size: 0x8, addend: 0x0, symName: __ZNSt3__121__libcpp_operator_newB8ue170006IJmEEEPvDpT_, symObjAddr: 0xE6C, symBinAddr: 0x1000034F8, symSize: 0x24 }
  - { offsetInCU: 0x5E61, offset: 0x5E61, size: 0x8, addend: 0x0, symName: __ZNSt3__112__to_addressB8ue170006I5PointEEPT_S3_, symObjAddr: 0xF88, symBinAddr: 0x100003614, symSize: 0x14 }
  - { offsetInCU: 0x5E96, offset: 0x5E96, size: 0x8, addend: 0x0, symName: __ZNSt3__119__libcpp_deallocateB8ue170006EPvmm, symObjAddr: 0x1438, symBinAddr: 0x100003AC4, symSize: 0x30 }
  - { offsetInCU: 0x5EDE, offset: 0x5EDE, size: 0x8, addend: 0x0, symName: __ZNSt3__127__do_deallocate_handle_sizeB8ue170006IJEEEvPvmDpT_, symObjAddr: 0x1468, symBinAddr: 0x100003AF4, symSize: 0x28 }
  - { offsetInCU: 0x5F1C, offset: 0x5F1C, size: 0x8, addend: 0x0, symName: __ZNSt3__124__libcpp_operator_deleteB8ue170006IJPvEEEvDpT_, symObjAddr: 0x1490, symBinAddr: 0x100003B1C, symSize: 0x24 }
  - { offsetInCU: 0x5F51, offset: 0x5F51, size: 0x8, addend: 0x0, symName: __ZNSt3__19use_facetB8ue170006INS_5ctypeIcEEEERKT_RKNS_6localeE, symObjAddr: 0x1578, symBinAddr: 0x100003C04, symSize: 0x2C }
  - { offsetInCU: 0x66F3, offset: 0x66F3, size: 0x8, addend: 0x0, symName: __ZSt28__throw_bad_array_new_lengthB8ue170006v, symObjAddr: 0xE10, symBinAddr: 0x10000349C, symSize: 0x34 }
  - { offsetInCU: 0x8DA3, offset: 0x8DA3, size: 0x8, addend: 0x0, symName: __Z8distance5PointS_, symObjAddr: 0x0, symBinAddr: 0x10000268C, symSize: 0x50 }
  - { offsetInCU: 0x8DDD, offset: 0x8DDD, size: 0x8, addend: 0x0, symName: _main, symObjAddr: 0x50, symBinAddr: 0x1000026DC, symSize: 0x31C }
  - { offsetInCU: 0x8ED0, offset: 0x8ED0, size: 0x8, addend: 0x0, symName: __ZNSt3__16vectorI5PointNS_9allocatorIS1_EEEC1Em, symObjAddr: 0x36C, symBinAddr: 0x1000029F8, symSize: 0x34 }
  - { offsetInCU: 0x8F09, offset: 0x8F09, size: 0x8, addend: 0x0, symName: __ZNSt3__16vectorI5PointNS_9allocatorIS1_EEEixB8ue170006Em, symObjAddr: 0x3A0, symBinAddr: 0x100002A2C, symSize: 0x24 }
  - { offsetInCU: 0x8FEC, offset: 0x8FEC, size: 0x8, addend: 0x0, symName: __ZNSt3__113basic_ostreamIcNS_11char_traitsIcEEElsB8ue170006EPFRS3_S4_E, symObjAddr: 0x3F0, symBinAddr: 0x100002A7C, symSize: 0x2C }
  - { offsetInCU: 0x901F, offset: 0x901F, size: 0x8, addend: 0x0, symName: __ZNSt3__16vectorI5PointNS_9allocatorIS1_EEED1B8ue170006Ev, symObjAddr: 0x474, symBinAddr: 0x100002B00, symSize: 0x2C }
  - { offsetInCU: 0x9057, offset: 0x9057, size: 0x8, addend: 0x0, symName: __ZNKSt3__16__lessIvvEclB8ue170006IiiEEbRKT_RKT0_, symObjAddr: 0x4F4, symBinAddr: 0x100002B80, symSize: 0x34 }
  - { offsetInCU: 0x90AA, offset: 0x90AA, size: 0x8, addend: 0x0, symName: __ZNSt3__16vectorI5PointNS_9allocatorIS1_EEEC2Em, symObjAddr: 0x528, symBinAddr: 0x100002BB4, symSize: 0xD4 }
  - { offsetInCU: 0x9104, offset: 0x9104, size: 0x8, addend: 0x0, symName: __ZNSt3__117__compressed_pairIP5PointNS_9allocatorIS1_EEEC1B8ue170006IDnNS_18__default_init_tagEEEOT_OT0_, symObjAddr: 0x5FC, symBinAddr: 0x100002C88, symSize: 0x3C }
  - { offsetInCU: 0x915B, offset: 0x915B, size: 0x8, addend: 0x0, symName: __ZNSt3__16vectorI5PointNS_9allocatorIS1_EEE16__destroy_vectorC1B8ue170006ERS4_, symObjAddr: 0x678, symBinAddr: 0x100002D04, symSize: 0x34 }
  - { offsetInCU: 0x9193, offset: 0x9193, size: 0x8, addend: 0x0, symName: __ZNSt3__16vectorI5PointNS_9allocatorIS1_EEE11__vallocateB8ue170006Em, symObjAddr: 0x6AC, symBinAddr: 0x100002D38, symSize: 0xAC }
  - { offsetInCU: 0x91D7, offset: 0x91D7, size: 0x8, addend: 0x0, symName: __ZNSt3__16vectorI5PointNS_9allocatorIS1_EEE18__construct_at_endEm, symObjAddr: 0x758, symBinAddr: 0x100002DE4, symSize: 0xC8 }
  - { offsetInCU: 0x924B, offset: 0x924B, size: 0x8, addend: 0x0, symName: __ZNSt3__128__exception_guard_exceptionsINS_6vectorI5PointNS_9allocatorIS2_EEE16__destroy_vectorEE10__completeB8ue170006Ev, symObjAddr: 0x820, symBinAddr: 0x100002EAC, symSize: 0x1C }
  - { offsetInCU: 0x9270, offset: 0x9270, size: 0x8, addend: 0x0, symName: __ZNSt3__128__exception_guard_exceptionsINS_6vectorI5PointNS_9allocatorIS2_EEE16__destroy_vectorEED1B8ue170006Ev, symObjAddr: 0x83C, symBinAddr: 0x100002EC8, symSize: 0x2C }
  - { offsetInCU: 0x9299, offset: 0x9299, size: 0x8, addend: 0x0, symName: __ZNSt3__117__compressed_pairIP5PointNS_9allocatorIS1_EEEC2B8ue170006IDnNS_18__default_init_tagEEEOT_OT0_, symObjAddr: 0x868, symBinAddr: 0x100002EF4, symSize: 0x40 }
  - { offsetInCU: 0x92F0, offset: 0x92F0, size: 0x8, addend: 0x0, symName: __ZNSt3__122__compressed_pair_elemIP5PointLi0ELb0EEC2B8ue170006IDnvEEOT_, symObjAddr: 0x8A8, symBinAddr: 0x100002F34, symSize: 0x1C }
  - { offsetInCU: 0x9331, offset: 0x9331, size: 0x8, addend: 0x0, symName: __ZNSt3__122__compressed_pair_elemINS_9allocatorI5PointEELi1ELb1EEC2B8ue170006ENS_18__default_init_tagE, symObjAddr: 0x8C4, symBinAddr: 0x100002F50, symSize: 0x2C }
  - { offsetInCU: 0x9365, offset: 0x9365, size: 0x8, addend: 0x0, symName: __ZNSt3__19allocatorI5PointEC2B8ue170006Ev, symObjAddr: 0x8F0, symBinAddr: 0x100002F7C, symSize: 0x2C }
  - { offsetInCU: 0x938E, offset: 0x938E, size: 0x8, addend: 0x0, symName: __ZNSt3__116__non_trivial_ifILb1ENS_9allocatorI5PointEEEC2B8ue170006Ev, symObjAddr: 0x91C, symBinAddr: 0x100002FA8, symSize: 0x14 }
  - { offsetInCU: 0x93B7, offset: 0x93B7, size: 0x8, addend: 0x0, symName: __ZNSt3__128__exception_guard_exceptionsINS_6vectorI5PointNS_9allocatorIS2_EEE16__destroy_vectorEEC1B8ue170006ES6_, symObjAddr: 0x930, symBinAddr: 0x100002FBC, symSize: 0x34 }
  - { offsetInCU: 0x93EE, offset: 0x93EE, size: 0x8, addend: 0x0, symName: __ZNSt3__128__exception_guard_exceptionsINS_6vectorI5PointNS_9allocatorIS2_EEE16__destroy_vectorEEC2B8ue170006ES6_, symObjAddr: 0x964, symBinAddr: 0x100002FF0, symSize: 0x24 }
  - { offsetInCU: 0x9425, offset: 0x9425, size: 0x8, addend: 0x0, symName: __ZNSt3__16vectorI5PointNS_9allocatorIS1_EEE16__destroy_vectorC2B8ue170006ERS4_, symObjAddr: 0x988, symBinAddr: 0x100003014, symSize: 0x20 }
  - { offsetInCU: 0x945D, offset: 0x945D, size: 0x8, addend: 0x0, symName: __ZNKSt3__16vectorI5PointNS_9allocatorIS1_EEE8max_sizeEv, symObjAddr: 0x9A8, symBinAddr: 0x100003034, symSize: 0x60 }
  - { offsetInCU: 0x9484, offset: 0x9484, size: 0x8, addend: 0x0, symName: __ZNKSt3__16vectorI5PointNS_9allocatorIS1_EEE20__throw_length_errorB8ue170006Ev, symObjAddr: 0xA08, symBinAddr: 0x100003094, symSize: 0x1C }
  - { offsetInCU: 0x94A9, offset: 0x94A9, size: 0x8, addend: 0x0, symName: __ZNSt3__16vectorI5PointNS_9allocatorIS1_EEE7__allocB8ue170006Ev, symObjAddr: 0xA64, symBinAddr: 0x1000030F0, symSize: 0x28 }
  - { offsetInCU: 0x94CE, offset: 0x94CE, size: 0x8, addend: 0x0, symName: __ZNSt3__16vectorI5PointNS_9allocatorIS1_EEE9__end_capB8ue170006Ev, symObjAddr: 0xA8C, symBinAddr: 0x100003118, symSize: 0x28 }
  - { offsetInCU: 0x94F3, offset: 0x94F3, size: 0x8, addend: 0x0, symName: __ZNKSt3__16vectorI5PointNS_9allocatorIS1_EEE14__annotate_newB8ue170006Em, symObjAddr: 0xAB4, symBinAddr: 0x100003140, symSize: 0xAC }
  - { offsetInCU: 0x9531, offset: 0x9531, size: 0x8, addend: 0x0, symName: __ZNSt3__116allocator_traitsINS_9allocatorI5PointEEE8max_sizeB8ue170006IS3_vEEmRKS3_, symObjAddr: 0xB8C, symBinAddr: 0x100003218, symSize: 0x24 }
  - { offsetInCU: 0x955F, offset: 0x955F, size: 0x8, addend: 0x0, symName: __ZNKSt3__16vectorI5PointNS_9allocatorIS1_EEE7__allocB8ue170006Ev, symObjAddr: 0xBB0, symBinAddr: 0x10000323C, symSize: 0x28 }
  - { offsetInCU: 0x9584, offset: 0x9584, size: 0x8, addend: 0x0, symName: __ZNSt3__114numeric_limitsIlE3maxB8ue170006Ev, symObjAddr: 0xBD8, symBinAddr: 0x100003264, symSize: 0x14 }
  - { offsetInCU: 0x95A2, offset: 0x95A2, size: 0x8, addend: 0x0, symName: __ZNKSt3__16__lessIvvEclB8ue170006ImmEEbRKT_RKT0_, symObjAddr: 0xC4C, symBinAddr: 0x1000032D8, symSize: 0x34 }
  - { offsetInCU: 0x95F5, offset: 0x95F5, size: 0x8, addend: 0x0, symName: __ZNKSt3__19allocatorI5PointE8max_sizeB8ue170006Ev, symObjAddr: 0xC80, symBinAddr: 0x10000330C, symSize: 0x14 }
  - { offsetInCU: 0x961A, offset: 0x961A, size: 0x8, addend: 0x0, symName: __ZNKSt3__117__compressed_pairIP5PointNS_9allocatorIS1_EEE6secondB8ue170006Ev, symObjAddr: 0xC94, symBinAddr: 0x100003320, symSize: 0x24 }
  - { offsetInCU: 0x963F, offset: 0x963F, size: 0x8, addend: 0x0, symName: __ZNKSt3__122__compressed_pair_elemINS_9allocatorI5PointEELi1ELb1EE5__getB8ue170006Ev, symObjAddr: 0xCB8, symBinAddr: 0x100003344, symSize: 0x14 }
  - { offsetInCU: 0x9664, offset: 0x9664, size: 0x8, addend: 0x0, symName: __ZNSt3__123__libcpp_numeric_limitsIlLb1EE3maxB8ue170006Ev, symObjAddr: 0xCCC, symBinAddr: 0x100003358, symSize: 0x8 }
  - { offsetInCU: 0x9678, offset: 0x9678, size: 0x8, addend: 0x0, symName: __ZNSt12length_errorC1B8ue170006EPKc, symObjAddr: 0xD38, symBinAddr: 0x1000033C4, symSize: 0x34 }
  - { offsetInCU: 0x96AF, offset: 0x96AF, size: 0x8, addend: 0x0, symName: __ZNSt12length_errorC2B8ue170006EPKc, symObjAddr: 0xD6C, symBinAddr: 0x1000033F8, symSize: 0x4C }
  - { offsetInCU: 0x96E6, offset: 0x96E6, size: 0x8, addend: 0x0, symName: __ZNSt3__19allocatorI5PointE8allocateB8ue170006Em, symObjAddr: 0xDB8, symBinAddr: 0x100003444, symSize: 0x58 }
  - { offsetInCU: 0x9719, offset: 0x9719, size: 0x8, addend: 0x0, symName: __ZNSt3__117__compressed_pairIP5PointNS_9allocatorIS1_EEE6secondB8ue170006Ev, symObjAddr: 0xE90, symBinAddr: 0x10000351C, symSize: 0x24 }
  - { offsetInCU: 0x973E, offset: 0x973E, size: 0x8, addend: 0x0, symName: __ZNSt3__122__compressed_pair_elemINS_9allocatorI5PointEELi1ELb1EE5__getB8ue170006Ev, symObjAddr: 0xEB4, symBinAddr: 0x100003540, symSize: 0x14 }
  - { offsetInCU: 0x9763, offset: 0x9763, size: 0x8, addend: 0x0, symName: __ZNSt3__117__compressed_pairIP5PointNS_9allocatorIS1_EEE5firstB8ue170006Ev, symObjAddr: 0xEC8, symBinAddr: 0x100003554, symSize: 0x24 }
  - { offsetInCU: 0x9788, offset: 0x9788, size: 0x8, addend: 0x0, symName: __ZNSt3__122__compressed_pair_elemIP5PointLi0ELb0EE5__getB8ue170006Ev, symObjAddr: 0xEEC, symBinAddr: 0x100003578, symSize: 0x14 }
  - { offsetInCU: 0x97AD, offset: 0x97AD, size: 0x8, addend: 0x0, symName: __ZNKSt3__16vectorI5PointNS_9allocatorIS1_EEE31__annotate_contiguous_containerB8ue170006EPKvS6_S6_S6_, symObjAddr: 0xF00, symBinAddr: 0x10000358C, symSize: 0x20 }
  - { offsetInCU: 0x9802, offset: 0x9802, size: 0x8, addend: 0x0, symName: __ZNKSt3__16vectorI5PointNS_9allocatorIS1_EEE4dataB8ue170006Ev, symObjAddr: 0xF20, symBinAddr: 0x1000035AC, symSize: 0x28 }
  - { offsetInCU: 0x9827, offset: 0x9827, size: 0x8, addend: 0x0, symName: __ZNKSt3__16vectorI5PointNS_9allocatorIS1_EEE8capacityB8ue170006Ev, symObjAddr: 0xF48, symBinAddr: 0x1000035D4, symSize: 0x40 }
  - { offsetInCU: 0x984C, offset: 0x984C, size: 0x8, addend: 0x0, symName: __ZNKSt3__16vectorI5PointNS_9allocatorIS1_EEE9__end_capB8ue170006Ev, symObjAddr: 0xF9C, symBinAddr: 0x100003628, symSize: 0x28 }
  - { offsetInCU: 0x9871, offset: 0x9871, size: 0x8, addend: 0x0, symName: __ZNKSt3__117__compressed_pairIP5PointNS_9allocatorIS1_EEE5firstB8ue170006Ev, symObjAddr: 0xFC4, symBinAddr: 0x100003650, symSize: 0x24 }
  - { offsetInCU: 0x9896, offset: 0x9896, size: 0x8, addend: 0x0, symName: __ZNKSt3__122__compressed_pair_elemIP5PointLi0ELb0EE5__getB8ue170006Ev, symObjAddr: 0xFE8, symBinAddr: 0x100003674, symSize: 0x14 }
  - { offsetInCU: 0x98D4, offset: 0x98D4, size: 0x8, addend: 0x0, symName: __ZNSt3__16vectorI5PointNS_9allocatorIS1_EEE21_ConstructTransactionC1B8ue170006ERS4_m, symObjAddr: 0xFFC, symBinAddr: 0x100003688, symSize: 0x3C }
  - { offsetInCU: 0x991B, offset: 0x991B, size: 0x8, addend: 0x0, symName: __ZNSt3__116allocator_traitsINS_9allocatorI5PointEEE9constructB8ue170006IS2_JEvEEvRS3_PT_DpOT0_, symObjAddr: 0x1038, symBinAddr: 0x1000036C4, symSize: 0x2C }
  - { offsetInCU: 0x995D, offset: 0x995D, size: 0x8, addend: 0x0, symName: __ZNSt3__16vectorI5PointNS_9allocatorIS1_EEE21_ConstructTransactionD1B8ue170006Ev, symObjAddr: 0x1064, symBinAddr: 0x1000036F0, symSize: 0x2C }
  - { offsetInCU: 0x9986, offset: 0x9986, size: 0x8, addend: 0x0, symName: __ZNSt3__16vectorI5PointNS_9allocatorIS1_EEE21_ConstructTransactionC2B8ue170006ERS4_m, symObjAddr: 0x1090, symBinAddr: 0x10000371C, symSize: 0x44 }
  - { offsetInCU: 0x99CD, offset: 0x99CD, size: 0x8, addend: 0x0, symName: __ZNSt3__19allocatorI5PointE9constructB8ue170006IS1_JEEEvPT_DpOT0_, symObjAddr: 0x10D4, symBinAddr: 0x100003760, symSize: 0x1C }
  - { offsetInCU: 0x9A0E, offset: 0x9A0E, size: 0x8, addend: 0x0, symName: __ZNSt3__16vectorI5PointNS_9allocatorIS1_EEE21_ConstructTransactionD2B8ue170006Ev, symObjAddr: 0x10F0, symBinAddr: 0x10000377C, symSize: 0x20 }
  - { offsetInCU: 0x9A37, offset: 0x9A37, size: 0x8, addend: 0x0, symName: __ZNSt3__128__exception_guard_exceptionsINS_6vectorI5PointNS_9allocatorIS2_EEE16__destroy_vectorEED2B8ue170006Ev, symObjAddr: 0x1110, symBinAddr: 0x10000379C, symSize: 0x50 }
  - { offsetInCU: 0x9A60, offset: 0x9A60, size: 0x8, addend: 0x0, symName: __ZNSt3__16vectorI5PointNS_9allocatorIS1_EEE16__destroy_vectorclB8ue170006Ev, symObjAddr: 0x1160, symBinAddr: 0x1000037EC, symSize: 0x90 }
  - { offsetInCU: 0x9A85, offset: 0x9A85, size: 0x8, addend: 0x0, symName: __ZNSt3__16vectorI5PointNS_9allocatorIS1_EEE7__clearB8ue170006Ev, symObjAddr: 0x11F0, symBinAddr: 0x10000387C, symSize: 0x28 }
  - { offsetInCU: 0x9AAA, offset: 0x9AAA, size: 0x8, addend: 0x0, symName: __ZNKSt3__16vectorI5PointNS_9allocatorIS1_EEE17__annotate_deleteB8ue170006Ev, symObjAddr: 0x1218, symBinAddr: 0x1000038A4, symSize: 0xB8 }
  - { offsetInCU: 0x9ACF, offset: 0x9ACF, size: 0x8, addend: 0x0, symName: __ZNSt3__116allocator_traitsINS_9allocatorI5PointEEE10deallocateB8ue170006ERS3_PS2_m, symObjAddr: 0x12D0, symBinAddr: 0x10000395C, symSize: 0x34 }
  - { offsetInCU: 0x9B11, offset: 0x9B11, size: 0x8, addend: 0x0, symName: __ZNSt3__16vectorI5PointNS_9allocatorIS1_EEE22__base_destruct_at_endB8ue170006EPS1_, symObjAddr: 0x1304, symBinAddr: 0x100003990, symSize: 0x8C }
  - { offsetInCU: 0x9B55, offset: 0x9B55, size: 0x8, addend: 0x0, symName: __ZNSt3__116allocator_traitsINS_9allocatorI5PointEEE7destroyB8ue170006IS2_vEEvRS3_PT_, symObjAddr: 0x1390, symBinAddr: 0x100003A1C, symSize: 0x2C }
  - { offsetInCU: 0x9B92, offset: 0x9B92, size: 0x8, addend: 0x0, symName: __ZNSt3__19allocatorI5PointE7destroyB8ue170006EPS1_, symObjAddr: 0x13BC, symBinAddr: 0x100003A48, symSize: 0x14 }
  - { offsetInCU: 0x9BC5, offset: 0x9BC5, size: 0x8, addend: 0x0, symName: __ZNKSt3__16vectorI5PointNS_9allocatorIS1_EEE4sizeB8ue170006Ev, symObjAddr: 0x13D0, symBinAddr: 0x100003A5C, symSize: 0x28 }
  - { offsetInCU: 0x9BEA, offset: 0x9BEA, size: 0x8, addend: 0x0, symName: __ZNSt3__19allocatorI5PointE10deallocateB8ue170006EPS1_m, symObjAddr: 0x13F8, symBinAddr: 0x100003A84, symSize: 0x40 }
  - { offsetInCU: 0x9C2B, offset: 0x9C2B, size: 0x8, addend: 0x0, symName: __ZNSt3__16vectorI5PointNS_9allocatorIS1_EEED2B8ue170006Ev, symObjAddr: 0x14B4, symBinAddr: 0x100003B40, symSize: 0x40 }
  - { offsetInCU: 0x9C54, offset: 0x9C54, size: 0x8, addend: 0x0, symName: __ZNKSt3__19basic_iosIcNS_11char_traitsIcEEE5widenB8ue170006Ec, symObjAddr: 0x14F4, symBinAddr: 0x100003B80, symSize: 0x84 }
  - { offsetInCU: 0x9CC1, offset: 0x9CC1, size: 0x8, addend: 0x0, symName: __ZNKSt3__15ctypeIcE5widenB8ue170006Ec, symObjAddr: 0x15A4, symBinAddr: 0x100003C30, symSize: 0x38 }
...
